
ocr_1.elf:     file format elf32-littleriscv


Disassembly of section .text:

800a1000 <main>:
800a1000:	fd010113          	addi	sp,sp,-48
800a1004:	02112623          	sw	ra,44(sp)
800a1008:	01312e23          	sw	s3,28(sp)
800a100c:	01812423          	sw	s8,8(sp)
800a1010:	01912223          	sw	s9,4(sp)
800a1014:	02812423          	sw	s0,40(sp)
800a1018:	02912223          	sw	s1,36(sp)
800a101c:	03212023          	sw	s2,32(sp)
800a1020:	01412c23          	sw	s4,24(sp)
800a1024:	01512a23          	sw	s5,20(sp)
800a1028:	01612823          	sw	s6,16(sp)
800a102c:	01712623          	sw	s7,12(sp)
800a1030:	80152c37          	lui	s8,0x80152
800a1034:	48c000ef          	jal	800a14c0 <getID>
800a1038:	ae4c2683          	lw	a3,-1308(s8) # 80151ae4 <lock_0>
800a103c:	80152cb7          	lui	s9,0x80152
800a1040:	ae0ca703          	lw	a4,-1312(s9) # 80151ae0 <lock_1>
800a1044:	801529b7          	lui	s3,0x80152
800a1048:	11100793          	li	a5,273
800a104c:	b0a9ac23          	sw	a0,-1256(s3) # 80151b18 <hart_id>
800a1050:	00f6a023          	sw	a5,0(a3)
800a1054:	00f72023          	sw	a5,0(a4)
800a1058:	470000ef          	jal	800a14c8 <setLock>
800a105c:	b189a783          	lw	a5,-1256(s3)
800a1060:	24078063          	beqz	a5,800a12a0 <main+0x2a0>
800a1064:	ae4c2703          	lw	a4,-1308(s8)
800a1068:	01a12023          	sw	s10,0(sp)
800a106c:	44400413          	li	s0,1092
800a1070:	00072783          	lw	a5,0(a4)
800a1074:	fe879ee3          	bne	a5,s0,800a1070 <main+0x70>
800a1078:	3d0000ef          	jal	800a1448 <acquire>
800a107c:	ae0ca783          	lw	a5,-1312(s9)
800a1080:	0087a023          	sw	s0,0(a5)
800a1084:	3fc000ef          	jal	800a1480 <release>
800a1088:	ae4c2703          	lw	a4,-1308(s8)
800a108c:	55500413          	li	s0,1365
800a1090:	00072783          	lw	a5,0(a4)
800a1094:	fe879ee3          	bne	a5,s0,800a1090 <main+0x90>
800a1098:	3b0000ef          	jal	800a1448 <acquire>
800a109c:	ae0ca783          	lw	a5,-1312(s9)
800a10a0:	800f1537          	lui	a0,0x800f1
800a10a4:	09c50513          	addi	a0,a0,156 # 800f109c <__clzsi2+0x48ee0>
800a10a8:	0087a023          	sw	s0,0(a5)
800a10ac:	2a9010ef          	jal	800a2b54 <printf>
800a10b0:	801517b7          	lui	a5,0x80151
800a10b4:	00078793          	mv	a5,a5
800a10b8:	0087a703          	lw	a4,8(a5) # 80151008 <n_neurons+0x8>
800a10bc:	0047a683          	lw	a3,4(a5)
800a10c0:	0007a603          	lw	a2,0(a5)
800a10c4:	801527b7          	lui	a5,0x80152
800a10c8:	b447a583          	lw	a1,-1212(a5) # 80151b44 <n_layers>
800a10cc:	800f1537          	lui	a0,0x800f1
800a10d0:	0d450513          	addi	a0,a0,212 # 800f10d4 <__clzsi2+0x48f18>
800a10d4:	281010ef          	jal	800a2b54 <printf>
800a10d8:	800f1537          	lui	a0,0x800f1
800a10dc:	11050513          	addi	a0,a0,272 # 800f1110 <__clzsi2+0x48f54>
800a10e0:	275010ef          	jal	800a2b54 <printf>
800a10e4:	39c000ef          	jal	800a1480 <release>
800a10e8:	43c020ef          	jal	800a3524 <clock>
800a10ec:	801524b7          	lui	s1,0x80152
800a10f0:	b3c4a783          	lw	a5,-1220(s1) # 80151b3c <n_images>
800a10f4:	80152d37          	lui	s10,0x80152
800a10f8:	b2ad2623          	sw	a0,-1236(s10) # 80151b2c <tick>
800a10fc:	32f05c63          	blez	a5,800a1434 <main+0x434>
800a1100:	00000413          	li	s0,0
800a1104:	80152937          	lui	s2,0x80152
800a1108:	80152ab7          	lui	s5,0x80152
800a110c:	80151a37          	lui	s4,0x80151
800a1110:	80152bb7          	lui	s7,0x80152
800a1114:	80152b37          	lui	s6,0x80152
800a1118:	b2492783          	lw	a5,-1244(s2) # 80151b24 <images>
800a111c:	00241713          	slli	a4,s0,0x2
800a1120:	b189a603          	lw	a2,-1256(s3)
800a1124:	00e787b3          	add	a5,a5,a4
800a1128:	0007a583          	lw	a1,0(a5)
800a112c:	020a0513          	addi	a0,s4,32 # 80151020 <nn>
800a1130:	640000ef          	jal	800a1770 <neuronet_eval>
800a1134:	b20aa783          	lw	a5,-1248(s5) # 80151b20 <labels>
800a1138:	b4ab2023          	sw	a0,-1216(s6) # 80151b40 <class_id>
800a113c:	008787b3          	add	a5,a5,s0
800a1140:	0007c703          	lbu	a4,0(a5)
800a1144:	00140413          	addi	s0,s0,1
800a1148:	b3c4a783          	lw	a5,-1220(s1)
800a114c:	14e50063          	beq	a0,a4,800a128c <main+0x28c>
800a1150:	fcf444e3          	blt	s0,a5,800a1118 <main+0x118>
800a1154:	3d0020ef          	jal	800a3524 <clock>
800a1158:	b2cd2703          	lw	a4,-1236(s10)
800a115c:	801527b7          	lui	a5,0x80152
800a1160:	b287a783          	lw	a5,-1240(a5) # 80151b28 <ticks_per_msec>
800a1164:	40e50533          	sub	a0,a0,a4
800a1168:	02f55533          	divu	a0,a0,a5
800a116c:	b2ad2623          	sw	a0,-1236(s10)
800a1170:	2d8000ef          	jal	800a1448 <acquire>
800a1174:	b30ba503          	lw	a0,-1232(s7) # 80151b30 <correct_count>
800a1178:	b3c4ab03          	lw	s6,-1220(s1)
800a117c:	651060ef          	jal	800a7fcc <__floatunsisf>
800a1180:	800f17b7          	lui	a5,0x800f1
800a1184:	6987a583          	lw	a1,1688(a5) # 800f1698 <__clz_tab+0x100>
800a1188:	588060ef          	jal	800a7710 <__mulsf3>
800a118c:	00050413          	mv	s0,a0
800a1190:	000b0513          	mv	a0,s6
800a1194:	531060ef          	jal	800a7ec4 <__floatsisf>
800a1198:	00050593          	mv	a1,a0
800a119c:	00040513          	mv	a0,s0
800a11a0:	0ec060ef          	jal	800a728c <__divsf3>
800a11a4:	705060ef          	jal	800a80a8 <__extendsfdf2>
800a11a8:	00058793          	mv	a5,a1
800a11ac:	b189a583          	lw	a1,-1256(s3)
800a11b0:	00050713          	mv	a4,a0
800a11b4:	800f1537          	lui	a0,0x800f1
800a11b8:	000b0613          	mv	a2,s6
800a11bc:	12850513          	addi	a0,a0,296 # 800f1128 <__clzsi2+0x48f6c>
800a11c0:	195010ef          	jal	800a2b54 <printf>
800a11c4:	b2cd2583          	lw	a1,-1236(s10)
800a11c8:	800f1537          	lui	a0,0x800f1
800a11cc:	16050513          	addi	a0,a0,352 # 800f1160 <__clzsi2+0x48fa4>
800a11d0:	185010ef          	jal	800a2b54 <printf>
800a11d4:	2ac000ef          	jal	800a1480 <release>
800a11d8:	020a0513          	addi	a0,s4,32
800a11dc:	558000ef          	jal	800a1734 <neuronet_free>
800a11e0:	b3c4a783          	lw	a5,-1220(s1)
800a11e4:	00000413          	li	s0,0
800a11e8:	02f05263          	blez	a5,800a120c <main+0x20c>
800a11ec:	b2492783          	lw	a5,-1244(s2)
800a11f0:	00241713          	slli	a4,s0,0x2
800a11f4:	00140413          	addi	s0,s0,1
800a11f8:	00e787b3          	add	a5,a5,a4
800a11fc:	0007a503          	lw	a0,0(a5)
800a1200:	50d010ef          	jal	800a2f0c <free>
800a1204:	b3c4a783          	lw	a5,-1220(s1)
800a1208:	fef442e3          	blt	s0,a5,800a11ec <main+0x1ec>
800a120c:	b2492503          	lw	a0,-1244(s2)
800a1210:	00001437          	lui	s0,0x1
800a1214:	88840413          	addi	s0,s0,-1912 # 888 <__stack_size+0x88>
800a1218:	4f5010ef          	jal	800a2f0c <free>
800a121c:	b20aa503          	lw	a0,-1248(s5)
800a1220:	4ed010ef          	jal	800a2f0c <free>
800a1224:	801527b7          	lui	a5,0x80152
800a1228:	b1c7a503          	lw	a0,-1252(a5) # 80151b1c <weights>
800a122c:	4e1010ef          	jal	800a2f0c <free>
800a1230:	218000ef          	jal	800a1448 <acquire>
800a1234:	ae0ca783          	lw	a5,-1312(s9)
800a1238:	0087a023          	sw	s0,0(a5)
800a123c:	244000ef          	jal	800a1480 <release>
800a1240:	ae4c2683          	lw	a3,-1308(s8)
800a1244:	00040713          	mv	a4,s0
800a1248:	0006a783          	lw	a5,0(a3)
800a124c:	fee79ee3          	bne	a5,a4,800a1248 <main+0x248>
800a1250:	00012d03          	lw	s10,0(sp)
800a1254:	02c12083          	lw	ra,44(sp)
800a1258:	02812403          	lw	s0,40(sp)
800a125c:	02412483          	lw	s1,36(sp)
800a1260:	02012903          	lw	s2,32(sp)
800a1264:	01c12983          	lw	s3,28(sp)
800a1268:	01812a03          	lw	s4,24(sp)
800a126c:	01412a83          	lw	s5,20(sp)
800a1270:	01012b03          	lw	s6,16(sp)
800a1274:	00c12b83          	lw	s7,12(sp)
800a1278:	00812c03          	lw	s8,8(sp)
800a127c:	00412c83          	lw	s9,4(sp)
800a1280:	00000513          	li	a0,0
800a1284:	03010113          	addi	sp,sp,48
800a1288:	00008067          	ret
800a128c:	b30ba703          	lw	a4,-1232(s7)
800a1290:	00170713          	addi	a4,a4,1
800a1294:	b2eba823          	sw	a4,-1232(s7)
800a1298:	e8f440e3          	blt	s0,a5,800a1118 <main+0x118>
800a129c:	eb9ff06f          	j	800a1154 <main+0x154>
800a12a0:	208000ef          	jal	800a14a8 <initialize>
800a12a4:	1a4000ef          	jal	800a1448 <acquire>
800a12a8:	800f1537          	lui	a0,0x800f1
800a12ac:	00050513          	mv	a0,a0
800a12b0:	0a5010ef          	jal	800a2b54 <printf>
800a12b4:	1cc000ef          	jal	800a1480 <release>
800a12b8:	b189a403          	lw	s0,-1256(s3)
800a12bc:	da0414e3          	bnez	s0,800a1064 <main+0x64>
800a12c0:	264020ef          	jal	800a3524 <clock>
800a12c4:	80152a37          	lui	s4,0x80152
800a12c8:	b2aa2623          	sw	a0,-1236(s4) # 80151b2c <tick>
800a12cc:	17c000ef          	jal	800a1448 <acquire>
800a12d0:	801524b7          	lui	s1,0x80152
800a12d4:	801526b7          	lui	a3,0x80152
800a12d8:	80152637          	lui	a2,0x80152
800a12dc:	800f1537          	lui	a0,0x800f1
800a12e0:	b3468693          	addi	a3,a3,-1228 # 80151b34 <n_cols>
800a12e4:	b3860613          	addi	a2,a2,-1224 # 80151b38 <n_rows>
800a12e8:	b3c48593          	addi	a1,s1,-1220 # 80151b3c <n_images>
800a12ec:	03c50513          	addi	a0,a0,60 # 800f103c <__clzsi2+0x48e80>
800a12f0:	51d000ef          	jal	800a200c <read_images>
800a12f4:	00050793          	mv	a5,a0
800a12f8:	800f1537          	lui	a0,0x800f1
800a12fc:	80152937          	lui	s2,0x80152
800a1300:	04c50513          	addi	a0,a0,76 # 800f104c <__clzsi2+0x48e90>
800a1304:	b2f92223          	sw	a5,-1244(s2) # 80151b24 <images>
800a1308:	6c1000ef          	jal	800a21c8 <read_labels>
800a130c:	00050713          	mv	a4,a0
800a1310:	80151b37          	lui	s6,0x80151
800a1314:	80152bb7          	lui	s7,0x80152
800a1318:	800f1537          	lui	a0,0x800f1
800a131c:	000b0613          	mv	a2,s6
800a1320:	b44b8593          	addi	a1,s7,-1212 # 80151b44 <n_layers>
800a1324:	801527b7          	lui	a5,0x80152
800a1328:	05c50513          	addi	a0,a0,92 # 800f105c <__clzsi2+0x48ea0>
800a132c:	b2e7a023          	sw	a4,-1248(a5) # 80151b20 <labels>
800a1330:	80152ab7          	lui	s5,0x80152
800a1334:	715000ef          	jal	800a2248 <read_weights>
800a1338:	b0aaae23          	sw	a0,-1252(s5) # 80151b1c <weights>
800a133c:	144000ef          	jal	800a1480 <release>
800a1340:	1e4020ef          	jal	800a3524 <clock>
800a1344:	b2ca2783          	lw	a5,-1236(s4)
800a1348:	80152737          	lui	a4,0x80152
800a134c:	b2872703          	lw	a4,-1240(a4) # 80151b28 <ticks_per_msec>
800a1350:	40f507b3          	sub	a5,a0,a5
800a1354:	02e7d7b3          	divu	a5,a5,a4
800a1358:	b2fa2623          	sw	a5,-1236(s4)
800a135c:	0ec000ef          	jal	800a1448 <acquire>
800a1360:	b2ca2583          	lw	a1,-1236(s4)
800a1364:	800f1537          	lui	a0,0x800f1
800a1368:	06850513          	addi	a0,a0,104 # 800f1068 <__clzsi2+0x48eac>
800a136c:	7e8010ef          	jal	800a2b54 <printf>
800a1370:	110000ef          	jal	800a1480 <release>
800a1374:	0d4000ef          	jal	800a1448 <acquire>
800a1378:	ae4c2783          	lw	a5,-1308(s8)
800a137c:	44400713          	li	a4,1092
800a1380:	00e7a023          	sw	a4,0(a5)
800a1384:	0fc000ef          	jal	800a1480 <release>
800a1388:	ae0ca683          	lw	a3,-1312(s9)
800a138c:	44400713          	li	a4,1092
800a1390:	0006a783          	lw	a5,0(a3)
800a1394:	fee79ee3          	bne	a5,a4,800a1390 <main+0x390>
800a1398:	b44ba583          	lw	a1,-1212(s7)
800a139c:	80151a37          	lui	s4,0x80151
800a13a0:	000b0613          	mv	a2,s6
800a13a4:	020a0513          	addi	a0,s4,32 # 80151020 <nn>
800a13a8:	130000ef          	jal	800a14d8 <neuronet_init>
800a13ac:	b1caa583          	lw	a1,-1252(s5)
800a13b0:	020a0513          	addi	a0,s4,32
800a13b4:	354000ef          	jal	800a1708 <neuronet_load>
800a13b8:	090000ef          	jal	800a1448 <acquire>
800a13bc:	ae4c2783          	lw	a5,-1308(s8)
800a13c0:	55500713          	li	a4,1365
800a13c4:	00e7a023          	sw	a4,0(a5)
800a13c8:	0b8000ef          	jal	800a1480 <release>
800a13cc:	ae0ca683          	lw	a3,-1312(s9)
800a13d0:	55500713          	li	a4,1365
800a13d4:	0006a783          	lw	a5,0(a3)
800a13d8:	fee79ee3          	bne	a5,a4,800a13d4 <main+0x3d4>
800a13dc:	b3c4a783          	lw	a5,-1220(s1)
800a13e0:	02f05663          	blez	a5,800a140c <main+0x40c>
800a13e4:	b2492783          	lw	a5,-1244(s2)
800a13e8:	00241713          	slli	a4,s0,0x2
800a13ec:	b189a603          	lw	a2,-1256(s3)
800a13f0:	00e787b3          	add	a5,a5,a4
800a13f4:	0007a583          	lw	a1,0(a5)
800a13f8:	020a0513          	addi	a0,s4,32
800a13fc:	00140413          	addi	s0,s0,1
800a1400:	370000ef          	jal	800a1770 <neuronet_eval>
800a1404:	b3c4a783          	lw	a5,-1220(s1)
800a1408:	fcf44ee3          	blt	s0,a5,800a13e4 <main+0x3e4>
800a140c:	ae0ca703          	lw	a4,-1312(s9)
800a1410:	00001437          	lui	s0,0x1
800a1414:	88840413          	addi	s0,s0,-1912 # 888 <__stack_size+0x88>
800a1418:	00072783          	lw	a5,0(a4)
800a141c:	fe879ee3          	bne	a5,s0,800a1418 <main+0x418>
800a1420:	028000ef          	jal	800a1448 <acquire>
800a1424:	ae4c2783          	lw	a5,-1308(s8)
800a1428:	0087a023          	sw	s0,0(a5)
800a142c:	054000ef          	jal	800a1480 <release>
800a1430:	e25ff06f          	j	800a1254 <main+0x254>
800a1434:	80152937          	lui	s2,0x80152
800a1438:	80152ab7          	lui	s5,0x80152
800a143c:	80151a37          	lui	s4,0x80151
800a1440:	80152bb7          	lui	s7,0x80152
800a1444:	d11ff06f          	j	800a1154 <main+0x154>

800a1448 <acquire>:
800a1448:	ff010113          	addi	sp,sp,-16
800a144c:	00812623          	sw	s0,12(sp)
800a1450:	01010413          	addi	s0,sp,16
800a1454:	801522b7          	lui	t0,0x80152
800a1458:	ae82a383          	lw	t2,-1304(t0) # 80151ae8 <print_lock>
800a145c:	00100293          	li	t0,1

800a1460 <again>:
800a1460:	0003a303          	lw	t1,0(t2)
800a1464:	fe031ee3          	bnez	t1,800a1460 <again>
800a1468:	0c53a32f          	amoswap.w.aq	t1,t0,(t2)
800a146c:	fe031ae3          	bnez	t1,800a1460 <again>
800a1470:	00000013          	nop
800a1474:	00c12403          	lw	s0,12(sp)
800a1478:	01010113          	addi	sp,sp,16
800a147c:	00008067          	ret

800a1480 <release>:
800a1480:	ff010113          	addi	sp,sp,-16
800a1484:	00812623          	sw	s0,12(sp)
800a1488:	01010413          	addi	s0,sp,16
800a148c:	801522b7          	lui	t0,0x80152
800a1490:	ae82a383          	lw	t2,-1304(t0) # 80151ae8 <print_lock>
800a1494:	0a03a02f          	amoswap.w.rl	zero,zero,(t2)
800a1498:	00000013          	nop
800a149c:	00c12403          	lw	s0,12(sp)
800a14a0:	01010113          	addi	sp,sp,16
800a14a4:	00008067          	ret

800a14a8 <initialize>:
800a14a8:	801527b7          	lui	a5,0x80152
800a14ac:	b207a823          	sw	zero,-1232(a5) # 80151b30 <correct_count>
800a14b0:	3e800713          	li	a4,1000
800a14b4:	801527b7          	lui	a5,0x80152
800a14b8:	b2e7a423          	sw	a4,-1240(a5) # 80151b28 <ticks_per_msec>
800a14bc:	00008067          	ret

800a14c0 <getID>:
800a14c0:	f1402573          	csrr	a0,mhartid
800a14c4:	00008067          	ret

800a14c8 <setLock>:
800a14c8:	801522b7          	lui	t0,0x80152
800a14cc:	ae82a383          	lw	t2,-1304(t0) # 80151ae8 <print_lock>
800a14d0:	0003a023          	sw	zero,0(t2)
800a14d4:	00008067          	ret

800a14d8 <neuronet_init>:
800a14d8:	fc010113          	addi	sp,sp,-64
800a14dc:	02112e23          	sw	ra,60(sp)
800a14e0:	02912c23          	sw	s1,56(sp)
800a14e4:	ffe58713          	addi	a4,a1,-2
800a14e8:	00600793          	li	a5,6
800a14ec:	1ee7ea63          	bltu	a5,a4,800a16e0 <neuronet_init+0x208>
800a14f0:	03212a23          	sw	s2,52(sp)
800a14f4:	03312823          	sw	s3,48(sp)
800a14f8:	03412623          	sw	s4,44(sp)
800a14fc:	01050993          	addi	s3,a0,16
800a1500:	03512423          	sw	s5,40(sp)
800a1504:	00259a93          	slli	s5,a1,0x2
800a1508:	00050493          	mv	s1,a0
800a150c:	02052a23          	sw	zero,52(a0)
800a1510:	00058a13          	mv	s4,a1
800a1514:	00098913          	mv	s2,s3
800a1518:	015606b3          	add	a3,a2,s5
800a151c:	00098793          	mv	a5,s3
800a1520:	00000513          	li	a0,0
800a1524:	00062703          	lw	a4,0(a2)
800a1528:	00460613          	addi	a2,a2,4
800a152c:	00478793          	addi	a5,a5,4
800a1530:	00e50533          	add	a0,a0,a4
800a1534:	fee7ae23          	sw	a4,-4(a5)
800a1538:	02a4aa23          	sw	a0,52(s1)
800a153c:	fed614e3          	bne	a2,a3,800a1524 <neuronet_init+0x4c>
800a1540:	00251513          	slli	a0,a0,0x2
800a1544:	0a1010ef          	jal	800a2de4 <malloc>
800a1548:	0344a783          	lw	a5,52(s1)
800a154c:	00a4a023          	sw	a0,0(s1)
800a1550:	00279513          	slli	a0,a5,0x2
800a1554:	091010ef          	jal	800a2de4 <malloc>
800a1558:	0344a783          	lw	a5,52(s1)
800a155c:	00a4a623          	sw	a0,12(s1)
800a1560:	00279513          	slli	a0,a5,0x2
800a1564:	081010ef          	jal	800a2de4 <malloc>
800a1568:	0004a303          	lw	t1,0(s1)
800a156c:	00010893          	mv	a7,sp
800a1570:	00a4a423          	sw	a0,8(s1)
800a1574:	0344a823          	sw	s4,48(s1)
800a1578:	015885b3          	add	a1,a7,s5
800a157c:	00098613          	mv	a2,s3
800a1580:	00088793          	mv	a5,a7
800a1584:	00000693          	li	a3,0
800a1588:	00062803          	lw	a6,0(a2)
800a158c:	00269713          	slli	a4,a3,0x2
800a1590:	00e30733          	add	a4,t1,a4
800a1594:	00e7a023          	sw	a4,0(a5)
800a1598:	00478793          	addi	a5,a5,4
800a159c:	010686b3          	add	a3,a3,a6
800a15a0:	00460613          	addi	a2,a2,4
800a15a4:	feb792e3          	bne	a5,a1,800a1588 <neuronet_init+0xb0>
800a15a8:	fffa0793          	addi	a5,s4,-1 # 80150fff <heap_top+0x5f93b>
800a15ac:	00279793          	slli	a5,a5,0x2
800a15b0:	02078793          	addi	a5,a5,32
800a15b4:	002787b3          	add	a5,a5,sp
800a15b8:	fe07a783          	lw	a5,-32(a5)
800a15bc:	0104a303          	lw	t1,16(s1)
800a15c0:	01448593          	addi	a1,s1,20
800a15c4:	02f4ae23          	sw	a5,60(s1)
800a15c8:	01598e33          	add	t3,s3,s5
800a15cc:	00058813          	mv	a6,a1
800a15d0:	00030793          	mv	a5,t1
800a15d4:	00082703          	lw	a4,0(a6)
800a15d8:	02070663          	beqz	a4,800a1604 <neuronet_init+0x12c>
800a15dc:	00f70633          	add	a2,a4,a5
800a15e0:	0008a683          	lw	a3,0(a7)
800a15e4:	00279793          	slli	a5,a5,0x2
800a15e8:	00261713          	slli	a4,a2,0x2
800a15ec:	00f507b3          	add	a5,a0,a5
800a15f0:	00e50733          	add	a4,a0,a4
800a15f4:	00d7a023          	sw	a3,0(a5)
800a15f8:	00478793          	addi	a5,a5,4
800a15fc:	fee79ce3          	bne	a5,a4,800a15f4 <neuronet_init+0x11c>
800a1600:	00060793          	mv	a5,a2
800a1604:	00480813          	addi	a6,a6,4
800a1608:	00488893          	addi	a7,a7,4
800a160c:	fdc814e3          	bne	a6,t3,800a15d4 <neuronet_init+0xfc>
800a1610:	00000513          	li	a0,0
800a1614:	00130793          	addi	a5,t1,1
800a1618:	0005a303          	lw	t1,0(a1)
800a161c:	00458593          	addi	a1,a1,4
800a1620:	026787b3          	mul	a5,a5,t1
800a1624:	00f50533          	add	a0,a0,a5
800a1628:	ffc596e3          	bne	a1,t3,800a1614 <neuronet_init+0x13c>
800a162c:	02a4ac23          	sw	a0,56(s1)
800a1630:	00251513          	slli	a0,a0,0x2
800a1634:	7b0010ef          	jal	800a2de4 <malloc>
800a1638:	0304a703          	lw	a4,48(s1)
800a163c:	00a4a223          	sw	a0,4(s1)
800a1640:	00100693          	li	a3,1
800a1644:	0104a783          	lw	a5,16(s1)
800a1648:	06e6dc63          	bge	a3,a4,800a16c0 <neuronet_init+0x1e8>
800a164c:	00271713          	slli	a4,a4,0x2
800a1650:	00c48693          	addi	a3,s1,12
800a1654:	00d70e33          	add	t3,a4,a3
800a1658:	00000893          	li	a7,0
800a165c:	00492503          	lw	a0,4(s2) # 80152004 <_stdin+0x4b4>
800a1660:	04a05c63          	blez	a0,800a16b8 <neuronet_init+0x1e0>
800a1664:	00092803          	lw	a6,0(s2)
800a1668:	00c4a603          	lw	a2,12(s1)
800a166c:	00f50333          	add	t1,a0,a5
800a1670:	00180813          	addi	a6,a6,1
800a1674:	00279793          	slli	a5,a5,0x2
800a1678:	00231713          	slli	a4,t1,0x2
800a167c:	00f607b3          	add	a5,a2,a5
800a1680:	00281593          	slli	a1,a6,0x2
800a1684:	00289693          	slli	a3,a7,0x2
800a1688:	00e60633          	add	a2,a2,a4
800a168c:	0044a703          	lw	a4,4(s1)
800a1690:	00478793          	addi	a5,a5,4
800a1694:	00d70733          	add	a4,a4,a3
800a1698:	fee7ae23          	sw	a4,-4(a5)
800a169c:	00b686b3          	add	a3,a3,a1
800a16a0:	fef616e3          	bne	a2,a5,800a168c <neuronet_init+0x1b4>
800a16a4:	fff50513          	addi	a0,a0,-1
800a16a8:	03050533          	mul	a0,a0,a6
800a16ac:	011808b3          	add	a7,a6,a7
800a16b0:	00030793          	mv	a5,t1
800a16b4:	011508b3          	add	a7,a0,a7
800a16b8:	00490913          	addi	s2,s2,4
800a16bc:	fbc910e3          	bne	s2,t3,800a165c <neuronet_init+0x184>
800a16c0:	03c12083          	lw	ra,60(sp)
800a16c4:	03412903          	lw	s2,52(sp)
800a16c8:	03012983          	lw	s3,48(sp)
800a16cc:	02c12a03          	lw	s4,44(sp)
800a16d0:	02812a83          	lw	s5,40(sp)
800a16d4:	03812483          	lw	s1,56(sp)
800a16d8:	04010113          	addi	sp,sp,64
800a16dc:	00008067          	ret
800a16e0:	800f17b7          	lui	a5,0x800f1
800a16e4:	38c78513          	addi	a0,a5,908 # 800f138c <__clzsi2+0x491d0>
800a16e8:	38c78493          	addi	s1,a5,908
800a16ec:	468010ef          	jal	800a2b54 <printf>
800a16f0:	03c12083          	lw	ra,60(sp)
800a16f4:	00c48513          	addi	a0,s1,12
800a16f8:	03812483          	lw	s1,56(sp)
800a16fc:	00800593          	li	a1,8
800a1700:	04010113          	addi	sp,sp,64
800a1704:	4500106f          	j	800a2b54 <printf>

800a1708 <neuronet_load>:
800a1708:	03852683          	lw	a3,56(a0)
800a170c:	02d05263          	blez	a3,800a1730 <neuronet_load+0x28>
800a1710:	00452783          	lw	a5,4(a0)
800a1714:	00269693          	slli	a3,a3,0x2
800a1718:	00d586b3          	add	a3,a1,a3
800a171c:	0005a703          	lw	a4,0(a1)
800a1720:	00458593          	addi	a1,a1,4
800a1724:	00478793          	addi	a5,a5,4
800a1728:	fee7ae23          	sw	a4,-4(a5)
800a172c:	fed598e3          	bne	a1,a3,800a171c <neuronet_load+0x14>
800a1730:	00008067          	ret

800a1734 <neuronet_free>:
800a1734:	ff010113          	addi	sp,sp,-16
800a1738:	00912423          	sw	s1,8(sp)
800a173c:	00050493          	mv	s1,a0
800a1740:	00452503          	lw	a0,4(a0)
800a1744:	00112623          	sw	ra,12(sp)
800a1748:	7c4010ef          	jal	800a2f0c <free>
800a174c:	0084a503          	lw	a0,8(s1)
800a1750:	7bc010ef          	jal	800a2f0c <free>
800a1754:	00c4a503          	lw	a0,12(s1)
800a1758:	7b4010ef          	jal	800a2f0c <free>
800a175c:	0004a503          	lw	a0,0(s1)
800a1760:	00c12083          	lw	ra,12(sp)
800a1764:	00812483          	lw	s1,8(sp)
800a1768:	01010113          	addi	sp,sp,16
800a176c:	7a00106f          	j	800a2f0c <free>

800a1770 <neuronet_eval>:
800a1770:	fb010113          	addi	sp,sp,-80
800a1774:	04912423          	sw	s1,72(sp)
800a1778:	04112623          	sw	ra,76(sp)
800a177c:	05212223          	sw	s2,68(sp)
800a1780:	05312023          	sw	s3,64(sp)
800a1784:	03412e23          	sw	s4,60(sp)
800a1788:	03512c23          	sw	s5,56(sp)
800a178c:	03612a23          	sw	s6,52(sp)
800a1790:	00a12823          	sw	a0,16(sp)
800a1794:	00058493          	mv	s1,a1
800a1798:	cb1ff0ef          	jal	800a1448 <acquire>
800a179c:	801527b7          	lui	a5,0x80152
800a17a0:	ae47a703          	lw	a4,-1308(a5) # 80151ae4 <lock_0>
800a17a4:	000017b7          	lui	a5,0x1
800a17a8:	99978793          	addi	a5,a5,-1639 # 999 <__stack_size+0x199>
800a17ac:	00072683          	lw	a3,0(a4)
800a17b0:	00f68463          	beq	a3,a5,800a17b8 <neuronet_eval+0x48>
800a17b4:	00f72023          	sw	a5,0(a4)
800a17b8:	801527b7          	lui	a5,0x80152
800a17bc:	ae07a703          	lw	a4,-1312(a5) # 80151ae0 <lock_1>
800a17c0:	000017b7          	lui	a5,0x1
800a17c4:	99978793          	addi	a5,a5,-1639 # 999 <__stack_size+0x199>
800a17c8:	00072683          	lw	a3,0(a4)
800a17cc:	00f68463          	beq	a3,a5,800a17d4 <neuronet_eval+0x64>
800a17d0:	00f72023          	sw	a5,0(a4)
800a17d4:	cadff0ef          	jal	800a1480 <release>
800a17d8:	f14027f3          	csrr	a5,mhartid
800a17dc:	00f12a23          	sw	a5,20(sp)
800a17e0:	20079263          	bnez	a5,800a19e4 <neuronet_eval+0x274>
800a17e4:	801527b7          	lui	a5,0x80152
800a17e8:	ae07a703          	lw	a4,-1312(a5) # 80151ae0 <lock_1>
800a17ec:	66600493          	li	s1,1638
800a17f0:	00072783          	lw	a5,0(a4)
800a17f4:	fe979ee3          	bne	a5,s1,800a17f0 <neuronet_eval+0x80>
800a17f8:	c51ff0ef          	jal	800a1448 <acquire>
800a17fc:	801527b7          	lui	a5,0x80152
800a1800:	ae47a703          	lw	a4,-1308(a5) # 80151ae4 <lock_0>
800a1804:	800f17b7          	lui	a5,0x800f1
800a1808:	38c78793          	addi	a5,a5,908 # 800f138c <__clzsi2+0x491d0>
800a180c:	00972023          	sw	s1,0(a4)
800a1810:	04078513          	addi	a0,a5,64
800a1814:	00f12e23          	sw	a5,28(sp)
800a1818:	33c010ef          	jal	800a2b54 <printf>
800a181c:	c65ff0ef          	jal	800a1480 <release>
800a1820:	01012683          	lw	a3,16(sp)
800a1824:	00100713          	li	a4,1
800a1828:	0306a783          	lw	a5,48(a3)
800a182c:	0106a683          	lw	a3,16(a3)
800a1830:	00d12623          	sw	a3,12(sp)
800a1834:	14f75a63          	bge	a4,a5,800a1988 <neuronet_eval+0x218>
800a1838:	01012683          	lw	a3,16(sp)
800a183c:	00279793          	slli	a5,a5,0x2
800a1840:	03712823          	sw	s7,48(sp)
800a1844:	00c68713          	addi	a4,a3,12
800a1848:	00f707b3          	add	a5,a4,a5
800a184c:	01068693          	addi	a3,a3,16
800a1850:	03812623          	sw	s8,44(sp)
800a1854:	03912423          	sw	s9,40(sp)
800a1858:	03a12223          	sw	s10,36(sp)
800a185c:	03b12023          	sw	s11,32(sp)
800a1860:	00d12423          	sw	a3,8(sp)
800a1864:	00f12c23          	sw	a5,24(sp)
800a1868:	00812783          	lw	a5,8(sp)
800a186c:	00100713          	li	a4,1
800a1870:	0047a783          	lw	a5,4(a5)
800a1874:	01f7db13          	srli	s6,a5,0x1f
800a1878:	00fb0b33          	add	s6,s6,a5
800a187c:	401b5b13          	srai	s6,s6,0x1
800a1880:	0cf75c63          	bge	a4,a5,800a1958 <neuronet_eval+0x1e8>
800a1884:	00812783          	lw	a5,8(sp)
800a1888:	00c12703          	lw	a4,12(sp)
800a188c:	00000a93          	li	s5,0
800a1890:	0007a903          	lw	s2,0(a5)
800a1894:	01012783          	lw	a5,16(sp)
800a1898:	00c7ac83          	lw	s9,12(a5)
800a189c:	0087ac03          	lw	s8,8(a5)
800a18a0:	0007a783          	lw	a5,0(a5)
800a18a4:	00f12023          	sw	a5,0(sp)
800a18a8:	01412783          	lw	a5,20(sp)
800a18ac:	00e789b3          	add	s3,a5,a4
800a18b0:	00291793          	slli	a5,s2,0x2
800a18b4:	00299993          	slli	s3,s3,0x2
800a18b8:	00f12223          	sw	a5,4(sp)
800a18bc:	013c8733          	add	a4,s9,s3
800a18c0:	013c07b3          	add	a5,s8,s3
800a18c4:	00072a03          	lw	s4,0(a4)
800a18c8:	0007ab83          	lw	s7,0(a5)
800a18cc:	11205863          	blez	s2,800a19dc <neuronet_eval+0x26c>
800a18d0:	000a0d13          	mv	s10,s4
800a18d4:	00000d93          	li	s11,0
800a18d8:	00000493          	li	s1,0
800a18dc:	000d2583          	lw	a1,0(s10)
800a18e0:	000ba503          	lw	a0,0(s7) # 80152000 <_stdin+0x4b0>
800a18e4:	001d8d93          	addi	s11,s11,1
800a18e8:	004b8b93          	addi	s7,s7,4
800a18ec:	625050ef          	jal	800a7710 <__mulsf3>
800a18f0:	00050593          	mv	a1,a0
800a18f4:	00048513          	mv	a0,s1
800a18f8:	574050ef          	jal	800a6e6c <__addsf3>
800a18fc:	004d0d13          	addi	s10,s10,4
800a1900:	00050493          	mv	s1,a0
800a1904:	fd2d9ce3          	bne	s11,s2,800a18dc <neuronet_eval+0x16c>
800a1908:	00412783          	lw	a5,4(sp)
800a190c:	00fa0a33          	add	s4,s4,a5
800a1910:	000a2583          	lw	a1,0(s4)
800a1914:	00048513          	mv	a0,s1
800a1918:	554050ef          	jal	800a6e6c <__addsf3>
800a191c:	00000593          	li	a1,0
800a1920:	00050493          	mv	s1,a0
800a1924:	541050ef          	jal	800a7664 <__lesf2>
800a1928:	00055463          	bgez	a0,800a1930 <neuronet_eval+0x1c0>
800a192c:	00000493          	li	s1,0
800a1930:	00012783          	lw	a5,0(sp)
800a1934:	001a8a93          	addi	s5,s5,1 # 80152001 <_stdin+0x4b1>
800a1938:	013787b3          	add	a5,a5,s3
800a193c:	0097a023          	sw	s1,0(a5)
800a1940:	00898993          	addi	s3,s3,8
800a1944:	f76acce3          	blt	s5,s6,800a18bc <neuronet_eval+0x14c>
800a1948:	00c12783          	lw	a5,12(sp)
800a194c:	001b1b13          	slli	s6,s6,0x1
800a1950:	00fb07b3          	add	a5,s6,a5
800a1954:	00f12623          	sw	a5,12(sp)
800a1958:	00812783          	lw	a5,8(sp)
800a195c:	01812703          	lw	a4,24(sp)
800a1960:	00478793          	addi	a5,a5,4
800a1964:	00f12423          	sw	a5,8(sp)
800a1968:	f0e790e3          	bne	a5,a4,800a1868 <neuronet_eval+0xf8>
800a196c:	01412783          	lw	a5,20(sp)
800a1970:	03012b83          	lw	s7,48(sp)
800a1974:	02c12c03          	lw	s8,44(sp)
800a1978:	02812c83          	lw	s9,40(sp)
800a197c:	02412d03          	lw	s10,36(sp)
800a1980:	02012d83          	lw	s11,32(sp)
800a1984:	0c079a63          	bnez	a5,800a1a58 <neuronet_eval+0x2e8>
800a1988:	801527b7          	lui	a5,0x80152
800a198c:	ae07a703          	lw	a4,-1312(a5) # 80151ae0 <lock_1>
800a1990:	77700493          	li	s1,1911
800a1994:	00072783          	lw	a5,0(a4)
800a1998:	fe979ee3          	bne	a5,s1,800a1994 <neuronet_eval+0x224>
800a199c:	aadff0ef          	jal	800a1448 <acquire>
800a19a0:	801527b7          	lui	a5,0x80152
800a19a4:	ae47a783          	lw	a5,-1308(a5) # 80151ae4 <lock_0>
800a19a8:	0097a023          	sw	s1,0(a5)
800a19ac:	ad5ff0ef          	jal	800a1480 <release>
800a19b0:	00000b13          	li	s6,0
800a19b4:	04c12083          	lw	ra,76(sp)
800a19b8:	04812483          	lw	s1,72(sp)
800a19bc:	04412903          	lw	s2,68(sp)
800a19c0:	04012983          	lw	s3,64(sp)
800a19c4:	03c12a03          	lw	s4,60(sp)
800a19c8:	03812a83          	lw	s5,56(sp)
800a19cc:	000b0513          	mv	a0,s6
800a19d0:	03412b03          	lw	s6,52(sp)
800a19d4:	05010113          	addi	sp,sp,80
800a19d8:	00008067          	ret
800a19dc:	00000493          	li	s1,0
800a19e0:	f31ff06f          	j	800a1910 <neuronet_eval+0x1a0>
800a19e4:	a65ff0ef          	jal	800a1448 <acquire>
800a19e8:	01012783          	lw	a5,16(sp)
800a19ec:	00048593          	mv	a1,s1
800a19f0:	0107a603          	lw	a2,16(a5)
800a19f4:	0007a503          	lw	a0,0(a5)
800a19f8:	00261613          	slli	a2,a2,0x2
800a19fc:	10d010ef          	jal	800a3308 <memcpy>
800a1a00:	801527b7          	lui	a5,0x80152
800a1a04:	ae07a703          	lw	a4,-1312(a5) # 80151ae0 <lock_1>
800a1a08:	800f17b7          	lui	a5,0x800f1
800a1a0c:	38c78793          	addi	a5,a5,908 # 800f138c <__clzsi2+0x491d0>
800a1a10:	00078693          	mv	a3,a5
800a1a14:	00f12e23          	sw	a5,28(sp)
800a1a18:	66600793          	li	a5,1638
800a1a1c:	00f72023          	sw	a5,0(a4)
800a1a20:	05468513          	addi	a0,a3,84
800a1a24:	130010ef          	jal	800a2b54 <printf>
800a1a28:	a59ff0ef          	jal	800a1480 <release>
800a1a2c:	801527b7          	lui	a5,0x80152
800a1a30:	ae47a683          	lw	a3,-1308(a5) # 80151ae4 <lock_0>
800a1a34:	66600713          	li	a4,1638
800a1a38:	0006a783          	lw	a5,0(a3)
800a1a3c:	fee79ee3          	bne	a5,a4,800a1a38 <neuronet_eval+0x2c8>
800a1a40:	01012683          	lw	a3,16(sp)
800a1a44:	00100713          	li	a4,1
800a1a48:	0306a783          	lw	a5,48(a3)
800a1a4c:	0106a683          	lw	a3,16(a3)
800a1a50:	00d12623          	sw	a3,12(sp)
800a1a54:	def742e3          	blt	a4,a5,800a1838 <neuronet_eval+0xc8>
800a1a58:	9f1ff0ef          	jal	800a1448 <acquire>
800a1a5c:	801527b7          	lui	a5,0x80152
800a1a60:	ae07a783          	lw	a5,-1312(a5) # 80151ae0 <lock_1>
800a1a64:	77700713          	li	a4,1911
800a1a68:	00e7a023          	sw	a4,0(a5)
800a1a6c:	a15ff0ef          	jal	800a1480 <release>
800a1a70:	801527b7          	lui	a5,0x80152
800a1a74:	ae47a683          	lw	a3,-1308(a5) # 80151ae4 <lock_0>
800a1a78:	77700713          	li	a4,1911
800a1a7c:	0006a783          	lw	a5,0(a3)
800a1a80:	fee79ee3          	bne	a5,a4,800a1a7c <neuronet_eval+0x30c>
800a1a84:	01012703          	lw	a4,16(sp)
800a1a88:	03072783          	lw	a5,48(a4)
800a1a8c:	00378793          	addi	a5,a5,3
800a1a90:	00279793          	slli	a5,a5,0x2
800a1a94:	00f707b3          	add	a5,a4,a5
800a1a98:	0007aa83          	lw	s5,0(a5)
800a1a9c:	f1505ae3          	blez	s5,800a19b0 <neuronet_eval+0x240>
800a1aa0:	01c12783          	lw	a5,28(sp)
800a1aa4:	03c72903          	lw	s2,60(a4)
800a1aa8:	00000b13          	li	s6,0
800a1aac:	03c7aa03          	lw	s4,60(a5)
800a1ab0:	00000493          	li	s1,0
800a1ab4:	00092983          	lw	s3,0(s2)
800a1ab8:	000a0593          	mv	a1,s4
800a1abc:	00098513          	mv	a0,s3
800a1ac0:	2f9050ef          	jal	800a75b8 <__gesf2>
800a1ac4:	00a05663          	blez	a0,800a1ad0 <neuronet_eval+0x360>
800a1ac8:	00048b13          	mv	s6,s1
800a1acc:	00098a13          	mv	s4,s3
800a1ad0:	00148493          	addi	s1,s1,1
800a1ad4:	00490913          	addi	s2,s2,4
800a1ad8:	fc9a9ee3          	bne	s5,s1,800a1ab4 <neuronet_eval+0x344>
800a1adc:	ed9ff06f          	j	800a19b4 <neuronet_eval+0x244>

800a1ae0 <relu>:
800a1ae0:	ff010113          	addi	sp,sp,-16
800a1ae4:	00000593          	li	a1,0
800a1ae8:	00912423          	sw	s1,8(sp)
800a1aec:	00112623          	sw	ra,12(sp)
800a1af0:	00050493          	mv	s1,a0
800a1af4:	371050ef          	jal	800a7664 <__lesf2>
800a1af8:	00055463          	bgez	a0,800a1b00 <relu+0x20>
800a1afc:	00000493          	li	s1,0
800a1b00:	00c12083          	lw	ra,12(sp)
800a1b04:	00048513          	mv	a0,s1
800a1b08:	00812483          	lw	s1,8(sp)
800a1b0c:	01010113          	addi	sp,sp,16
800a1b10:	00008067          	ret

800a1b14 <lerp>:
800a1b14:	ff010113          	addi	sp,sp,-16
800a1b18:	00812423          	sw	s0,8(sp)
800a1b1c:	00050413          	mv	s0,a0
800a1b20:	00058513          	mv	a0,a1
800a1b24:	00040593          	mv	a1,s0
800a1b28:	00112623          	sw	ra,12(sp)
800a1b2c:	00912223          	sw	s1,4(sp)
800a1b30:	00060493          	mv	s1,a2
800a1b34:	6f9050ef          	jal	800a7a2c <__subsf3>
800a1b38:	00048593          	mv	a1,s1
800a1b3c:	3d5050ef          	jal	800a7710 <__mulsf3>
800a1b40:	00040593          	mv	a1,s0
800a1b44:	328050ef          	jal	800a6e6c <__addsf3>
800a1b48:	00c12083          	lw	ra,12(sp)
800a1b4c:	00812403          	lw	s0,8(sp)
800a1b50:	00412483          	lw	s1,4(sp)
800a1b54:	01010113          	addi	sp,sp,16
800a1b58:	00008067          	ret

800a1b5c <sample>:
800a1b5c:	fd010113          	addi	sp,sp,-48
800a1b60:	01612823          	sw	s6,16(sp)
800a1b64:	00050b13          	mv	s6,a0
800a1b68:	00058513          	mv	a0,a1
800a1b6c:	02112623          	sw	ra,44(sp)
800a1b70:	02812423          	sw	s0,40(sp)
800a1b74:	02912223          	sw	s1,36(sp)
800a1b78:	03212023          	sw	s2,32(sp)
800a1b7c:	00068493          	mv	s1,a3
800a1b80:	01312e23          	sw	s3,28(sp)
800a1b84:	01412c23          	sw	s4,24(sp)
800a1b88:	00058993          	mv	s3,a1
800a1b8c:	00060a13          	mv	s4,a2
800a1b90:	01512a23          	sw	s5,20(sp)
800a1b94:	01712623          	sw	s7,12(sp)
800a1b98:	01a12023          	sw	s10,0(sp)
800a1b9c:	00070b93          	mv	s7,a4
800a1ba0:	01812423          	sw	s8,8(sp)
800a1ba4:	01912223          	sw	s9,4(sp)
800a1ba8:	2b4060ef          	jal	800a7e5c <__fixunssfsi>
800a1bac:	00050913          	mv	s2,a0
800a1bb0:	000a0513          	mv	a0,s4
800a1bb4:	2a8060ef          	jal	800a7e5c <__fixunssfsi>
800a1bb8:	00050413          	mv	s0,a0
800a1bbc:	00090513          	mv	a0,s2
800a1bc0:	40c060ef          	jal	800a7fcc <__floatunsisf>
800a1bc4:	00050593          	mv	a1,a0
800a1bc8:	00098513          	mv	a0,s3
800a1bcc:	661050ef          	jal	800a7a2c <__subsf3>
800a1bd0:	00050993          	mv	s3,a0
800a1bd4:	00040513          	mv	a0,s0
800a1bd8:	3f4060ef          	jal	800a7fcc <__floatunsisf>
800a1bdc:	00050593          	mv	a1,a0
800a1be0:	000a0513          	mv	a0,s4
800a1be4:	649050ef          	jal	800a7a2c <__subsf3>
800a1be8:	00190d13          	addi	s10,s2,1
800a1bec:	00140a93          	addi	s5,s0,1
800a1bf0:	00050a13          	mv	s4,a0
800a1bf4:	04997e63          	bgeu	s2,s1,800a1c50 <sample+0xf4>
800a1bf8:	0b747463          	bgeu	s0,s7,800a1ca0 <sample+0x144>
800a1bfc:	02848433          	mul	s0,s1,s0
800a1c00:	012407b3          	add	a5,s0,s2
800a1c04:	00279793          	slli	a5,a5,0x2
800a1c08:	00fb07b3          	add	a5,s6,a5
800a1c0c:	0007ac03          	lw	s8,0(a5)
800a1c10:	149d6663          	bltu	s10,s1,800a1d5c <sample+0x200>
800a1c14:	000c0593          	mv	a1,s8
800a1c18:	00000513          	li	a0,0
800a1c1c:	611050ef          	jal	800a7a2c <__subsf3>
800a1c20:	00050c93          	mv	s9,a0
800a1c24:	0b7af263          	bgeu	s5,s7,800a1cc8 <sample+0x16c>
800a1c28:	035487b3          	mul	a5,s1,s5
800a1c2c:	012787b3          	add	a5,a5,s2
800a1c30:	00279793          	slli	a5,a5,0x2
800a1c34:	00fb07b3          	add	a5,s6,a5
800a1c38:	0007a903          	lw	s2,0(a5)
800a1c3c:	00090593          	mv	a1,s2
800a1c40:	00000513          	li	a0,0
800a1c44:	5e9050ef          	jal	800a7a2c <__subsf3>
800a1c48:	00050493          	mv	s1,a0
800a1c4c:	0840006f          	j	800a1cd0 <sample+0x174>
800a1c50:	00000c93          	li	s9,0
800a1c54:	0e9d7c63          	bgeu	s10,s1,800a1d4c <sample+0x1f0>
800a1c58:	01747c63          	bgeu	s0,s7,800a1c70 <sample+0x114>
800a1c5c:	028487b3          	mul	a5,s1,s0
800a1c60:	01a787b3          	add	a5,a5,s10
800a1c64:	00279793          	slli	a5,a5,0x2
800a1c68:	00fb07b3          	add	a5,s6,a5
800a1c6c:	0007ac83          	lw	s9,0(a5)
800a1c70:	117af863          	bgeu	s5,s7,800a1d80 <sample+0x224>
800a1c74:	03548ab3          	mul	s5,s1,s5
800a1c78:	00000913          	li	s2,0
800a1c7c:	00090c13          	mv	s8,s2
800a1c80:	015d0ab3          	add	s5,s10,s5
800a1c84:	002a9a93          	slli	s5,s5,0x2
800a1c88:	015b0ab3          	add	s5,s6,s5
800a1c8c:	000aa503          	lw	a0,0(s5)
800a1c90:	00090593          	mv	a1,s2
800a1c94:	599050ef          	jal	800a7a2c <__subsf3>
800a1c98:	00050493          	mv	s1,a0
800a1c9c:	0340006f          	j	800a1cd0 <sample+0x174>
800a1ca0:	00000c93          	li	s9,0
800a1ca4:	000c8c13          	mv	s8,s9
800a1ca8:	037af063          	bgeu	s5,s7,800a1cc8 <sample+0x16c>
800a1cac:	03548ab3          	mul	s5,s1,s5
800a1cb0:	012a8933          	add	s2,s5,s2
800a1cb4:	00291913          	slli	s2,s2,0x2
800a1cb8:	012b0933          	add	s2,s6,s2
800a1cbc:	00092903          	lw	s2,0(s2)
800a1cc0:	fc9d60e3          	bltu	s10,s1,800a1c80 <sample+0x124>
800a1cc4:	f79ff06f          	j	800a1c3c <sample+0xe0>
800a1cc8:	00000493          	li	s1,0
800a1ccc:	00048913          	mv	s2,s1
800a1cd0:	000c8593          	mv	a1,s9
800a1cd4:	00098513          	mv	a0,s3
800a1cd8:	239050ef          	jal	800a7710 <__mulsf3>
800a1cdc:	000c0593          	mv	a1,s8
800a1ce0:	18c050ef          	jal	800a6e6c <__addsf3>
800a1ce4:	00050413          	mv	s0,a0
800a1ce8:	00048593          	mv	a1,s1
800a1cec:	00098513          	mv	a0,s3
800a1cf0:	221050ef          	jal	800a7710 <__mulsf3>
800a1cf4:	00090593          	mv	a1,s2
800a1cf8:	174050ef          	jal	800a6e6c <__addsf3>
800a1cfc:	00040593          	mv	a1,s0
800a1d00:	52d050ef          	jal	800a7a2c <__subsf3>
800a1d04:	000a0593          	mv	a1,s4
800a1d08:	209050ef          	jal	800a7710 <__mulsf3>
800a1d0c:	00040593          	mv	a1,s0
800a1d10:	15c050ef          	jal	800a6e6c <__addsf3>
800a1d14:	02c12083          	lw	ra,44(sp)
800a1d18:	02812403          	lw	s0,40(sp)
800a1d1c:	02412483          	lw	s1,36(sp)
800a1d20:	02012903          	lw	s2,32(sp)
800a1d24:	01c12983          	lw	s3,28(sp)
800a1d28:	01812a03          	lw	s4,24(sp)
800a1d2c:	01412a83          	lw	s5,20(sp)
800a1d30:	01012b03          	lw	s6,16(sp)
800a1d34:	00c12b83          	lw	s7,12(sp)
800a1d38:	00812c03          	lw	s8,8(sp)
800a1d3c:	00412c83          	lw	s9,4(sp)
800a1d40:	00012d03          	lw	s10,0(sp)
800a1d44:	03010113          	addi	sp,sp,48
800a1d48:	00008067          	ret
800a1d4c:	000c8493          	mv	s1,s9
800a1d50:	000c8913          	mv	s2,s9
800a1d54:	000c8c13          	mv	s8,s9
800a1d58:	f79ff06f          	j	800a1cd0 <sample+0x174>
800a1d5c:	01a40433          	add	s0,s0,s10
800a1d60:	00241793          	slli	a5,s0,0x2
800a1d64:	00fb07b3          	add	a5,s6,a5
800a1d68:	0007a503          	lw	a0,0(a5)
800a1d6c:	000c0593          	mv	a1,s8
800a1d70:	4bd050ef          	jal	800a7a2c <__subsf3>
800a1d74:	00050c93          	mv	s9,a0
800a1d78:	f37aeae3          	bltu	s5,s7,800a1cac <sample+0x150>
800a1d7c:	f4dff06f          	j	800a1cc8 <sample+0x16c>
800a1d80:	00000493          	li	s1,0
800a1d84:	00048913          	mv	s2,s1
800a1d88:	00048c13          	mv	s8,s1
800a1d8c:	f45ff06f          	j	800a1cd0 <sample+0x174>

800a1d90 <width_normalize>:
800a1d90:	fb010113          	addi	sp,sp,-80
800a1d94:	04912223          	sw	s1,68(sp)
800a1d98:	02c584b3          	mul	s1,a1,a2
800a1d9c:	03912223          	sw	s9,36(sp)
800a1da0:	00050c93          	mv	s9,a0
800a1da4:	04812423          	sw	s0,72(sp)
800a1da8:	03612823          	sw	s6,48(sp)
800a1dac:	04112623          	sw	ra,76(sp)
800a1db0:	05212023          	sw	s2,64(sp)
800a1db4:	03312e23          	sw	s3,60(sp)
800a1db8:	03412c23          	sw	s4,56(sp)
800a1dbc:	03512a23          	sw	s5,52(sp)
800a1dc0:	00249793          	slli	a5,s1,0x2
800a1dc4:	00078513          	mv	a0,a5
800a1dc8:	00f12623          	sw	a5,12(sp)
800a1dcc:	03712623          	sw	s7,44(sp)
800a1dd0:	03812423          	sw	s8,40(sp)
800a1dd4:	03a12023          	sw	s10,32(sp)
800a1dd8:	01b12e23          	sw	s11,28(sp)
800a1ddc:	00058413          	mv	s0,a1
800a1de0:	00060b13          	mv	s6,a2
800a1de4:	000010ef          	jal	800a2de4 <malloc>
800a1de8:	801527b7          	lui	a5,0x80152
800a1dec:	b4a7a423          	sw	a0,-1208(a5) # 80151b48 <ibuf.0>
800a1df0:	1e050863          	beqz	a0,800a1fe0 <width_normalize+0x250>
800a1df4:	20905263          	blez	s1,800a1ff8 <width_normalize+0x268>
800a1df8:	800f17b7          	lui	a5,0x800f1
800a1dfc:	6a07aa03          	lw	s4,1696(a5) # 800f16a0 <__clz_tab+0x108>
800a1e00:	6a47aa83          	lw	s5,1700(a5)
800a1e04:	000c8d13          	mv	s10,s9
800a1e08:	000b0c13          	mv	s8,s6
800a1e0c:	00040b93          	mv	s7,s0
800a1e10:	00000d93          	li	s11,0
800a1e14:	00000993          	li	s3,0
800a1e18:	00000913          	li	s2,0
800a1e1c:	000d2503          	lw	a0,0(s10)
800a1e20:	288060ef          	jal	800a80a8 <__extendsfdf2>
800a1e24:	000a0613          	mv	a2,s4
800a1e28:	000a8693          	mv	a3,s5
800a1e2c:	74d030ef          	jal	800a5d78 <__gedf2>
800a1e30:	02054663          	bltz	a0,800a1e5c <width_normalize+0xcc>
800a1e34:	028de633          	rem	a2,s11,s0
800a1e38:	028dc6b3          	div	a3,s11,s0
800a1e3c:	01765463          	bge	a2,s7,800a1e44 <width_normalize+0xb4>
800a1e40:	00060b93          	mv	s7,a2
800a1e44:	0186d463          	bge	a3,s8,800a1e4c <width_normalize+0xbc>
800a1e48:	00068c13          	mv	s8,a3
800a1e4c:	00c95463          	bge	s2,a2,800a1e54 <width_normalize+0xc4>
800a1e50:	00060913          	mv	s2,a2
800a1e54:	00d9d463          	bge	s3,a3,800a1e5c <width_normalize+0xcc>
800a1e58:	00068993          	mv	s3,a3
800a1e5c:	001d8d93          	addi	s11,s11,1
800a1e60:	004d0d13          	addi	s10,s10,4
800a1e64:	fbb49ce3          	bne	s1,s11,800a1e1c <width_normalize+0x8c>
800a1e68:	13794e63          	blt	s2,s7,800a1fa4 <width_normalize+0x214>
800a1e6c:	1389cc63          	blt	s3,s8,800a1fa4 <width_normalize+0x214>
800a1e70:	41790533          	sub	a0,s2,s7
800a1e74:	00150513          	addi	a0,a0,1
800a1e78:	04c060ef          	jal	800a7ec4 <__floatsisf>
800a1e7c:	00050913          	mv	s2,a0
800a1e80:	00040513          	mv	a0,s0
800a1e84:	040060ef          	jal	800a7ec4 <__floatsisf>
800a1e88:	00050593          	mv	a1,a0
800a1e8c:	00090513          	mv	a0,s2
800a1e90:	3fc050ef          	jal	800a728c <__divsf3>
800a1e94:	00050793          	mv	a5,a0
800a1e98:	41898533          	sub	a0,s3,s8
800a1e9c:	00150513          	addi	a0,a0,1
800a1ea0:	00078993          	mv	s3,a5
800a1ea4:	020060ef          	jal	800a7ec4 <__floatsisf>
800a1ea8:	00050913          	mv	s2,a0
800a1eac:	000b0513          	mv	a0,s6
800a1eb0:	014060ef          	jal	800a7ec4 <__floatsisf>
800a1eb4:	00050593          	mv	a1,a0
800a1eb8:	00090513          	mv	a0,s2
800a1ebc:	3d0050ef          	jal	800a728c <__divsf3>
800a1ec0:	801527b7          	lui	a5,0x80152
800a1ec4:	b487ad83          	lw	s11,-1208(a5) # 80151b48 <ibuf.0>
800a1ec8:	00050a13          	mv	s4,a0
800a1ecc:	08905263          	blez	s1,800a1f50 <width_normalize+0x1c0>
800a1ed0:	000b8513          	mv	a0,s7
800a1ed4:	7f1050ef          	jal	800a7ec4 <__floatsisf>
800a1ed8:	00050793          	mv	a5,a0
800a1edc:	000c0513          	mv	a0,s8
800a1ee0:	00078c13          	mv	s8,a5
800a1ee4:	7e1050ef          	jal	800a7ec4 <__floatsisf>
800a1ee8:	00050b93          	mv	s7,a0
800a1eec:	000d8a93          	mv	s5,s11
800a1ef0:	00000913          	li	s2,0
800a1ef4:	02894533          	div	a0,s2,s0
800a1ef8:	004a8a93          	addi	s5,s5,4
800a1efc:	7c9050ef          	jal	800a7ec4 <__floatsisf>
800a1f00:	000a0593          	mv	a1,s4
800a1f04:	00d050ef          	jal	800a7710 <__mulsf3>
800a1f08:	000b8593          	mv	a1,s7
800a1f0c:	761040ef          	jal	800a6e6c <__addsf3>
800a1f10:	00050d13          	mv	s10,a0
800a1f14:	02896533          	rem	a0,s2,s0
800a1f18:	00190913          	addi	s2,s2,1
800a1f1c:	7a9050ef          	jal	800a7ec4 <__floatsisf>
800a1f20:	00098593          	mv	a1,s3
800a1f24:	7ec050ef          	jal	800a7710 <__mulsf3>
800a1f28:	000c0593          	mv	a1,s8
800a1f2c:	741040ef          	jal	800a6e6c <__addsf3>
800a1f30:	00050593          	mv	a1,a0
800a1f34:	000b0713          	mv	a4,s6
800a1f38:	00040693          	mv	a3,s0
800a1f3c:	000d0613          	mv	a2,s10
800a1f40:	000c8513          	mv	a0,s9
800a1f44:	c19ff0ef          	jal	800a1b5c <sample>
800a1f48:	feaaae23          	sw	a0,-4(s5)
800a1f4c:	fb2494e3          	bne	s1,s2,800a1ef4 <width_normalize+0x164>
800a1f50:	00c12603          	lw	a2,12(sp)
800a1f54:	000d8593          	mv	a1,s11
800a1f58:	000c8513          	mv	a0,s9
800a1f5c:	3ac010ef          	jal	800a3308 <memcpy>
800a1f60:	801527b7          	lui	a5,0x80152
800a1f64:	04812403          	lw	s0,72(sp)
800a1f68:	04c12083          	lw	ra,76(sp)
800a1f6c:	04412483          	lw	s1,68(sp)
800a1f70:	04012903          	lw	s2,64(sp)
800a1f74:	03c12983          	lw	s3,60(sp)
800a1f78:	03812a03          	lw	s4,56(sp)
800a1f7c:	03412a83          	lw	s5,52(sp)
800a1f80:	03012b03          	lw	s6,48(sp)
800a1f84:	02c12b83          	lw	s7,44(sp)
800a1f88:	02812c03          	lw	s8,40(sp)
800a1f8c:	02412c83          	lw	s9,36(sp)
800a1f90:	02012d03          	lw	s10,32(sp)
800a1f94:	01c12d83          	lw	s11,28(sp)
800a1f98:	b487a503          	lw	a0,-1208(a5) # 80151b48 <ibuf.0>
800a1f9c:	05010113          	addi	sp,sp,80
800a1fa0:	76d0006f          	j	800a2f0c <free>
800a1fa4:	04c12083          	lw	ra,76(sp)
800a1fa8:	04812403          	lw	s0,72(sp)
800a1fac:	04412483          	lw	s1,68(sp)
800a1fb0:	04012903          	lw	s2,64(sp)
800a1fb4:	03c12983          	lw	s3,60(sp)
800a1fb8:	03812a03          	lw	s4,56(sp)
800a1fbc:	03412a83          	lw	s5,52(sp)
800a1fc0:	03012b03          	lw	s6,48(sp)
800a1fc4:	02c12b83          	lw	s7,44(sp)
800a1fc8:	02812c03          	lw	s8,40(sp)
800a1fcc:	02412c83          	lw	s9,36(sp)
800a1fd0:	02012d03          	lw	s10,32(sp)
800a1fd4:	01c12d83          	lw	s11,28(sp)
800a1fd8:	05010113          	addi	sp,sp,80
800a1fdc:	00008067          	ret
800a1fe0:	800f1537          	lui	a0,0x800f1
800a1fe4:	18850513          	addi	a0,a0,392 # 800f1188 <__clzsi2+0x48fcc>
800a1fe8:	36d000ef          	jal	800a2b54 <printf>
800a1fec:	fff00513          	li	a0,-1
800a1ff0:	5a9000ef          	jal	800a2d98 <exit>
800a1ff4:	e09042e3          	bgtz	s1,800a1df8 <width_normalize+0x68>
800a1ff8:	000b0c13          	mv	s8,s6
800a1ffc:	00040b93          	mv	s7,s0
800a2000:	00000993          	li	s3,0
800a2004:	00000913          	li	s2,0
800a2008:	e61ff06f          	j	800a1e68 <width_normalize+0xd8>

800a200c <read_images>:
800a200c:	fb010113          	addi	sp,sp,-80
800a2010:	04812423          	sw	s0,72(sp)
800a2014:	80152437          	lui	s0,0x80152
800a2018:	03812423          	sw	s8,40(sp)
800a201c:	00058c13          	mv	s8,a1
800a2020:	aec42583          	lw	a1,-1300(s0) # 80151aec <fbuf>
800a2024:	04112623          	sw	ra,76(sp)
800a2028:	04912223          	sw	s1,68(sp)
800a202c:	03312e23          	sw	s3,60(sp)
800a2030:	00068493          	mv	s1,a3
800a2034:	03412c23          	sw	s4,56(sp)
800a2038:	03912223          	sw	s9,36(sp)
800a203c:	00d12423          	sw	a3,8(sp)
800a2040:	00060c93          	mv	s9,a2
800a2044:	2a5010ef          	jal	800a3ae8 <read_file>
800a2048:	aec42983          	lw	s3,-1300(s0)
800a204c:	0049c783          	lbu	a5,4(s3)
800a2050:	0059c683          	lbu	a3,5(s3)
800a2054:	0079c603          	lbu	a2,7(s3)
800a2058:	0069c703          	lbu	a4,6(s3)
800a205c:	01069693          	slli	a3,a3,0x10
800a2060:	01879793          	slli	a5,a5,0x18
800a2064:	00d7e7b3          	or	a5,a5,a3
800a2068:	00c7e7b3          	or	a5,a5,a2
800a206c:	00871713          	slli	a4,a4,0x8
800a2070:	00e7e7b3          	or	a5,a5,a4
800a2074:	00fc2023          	sw	a5,0(s8)
800a2078:	0089c783          	lbu	a5,8(s3)
800a207c:	0099c683          	lbu	a3,9(s3)
800a2080:	00b9c603          	lbu	a2,11(s3)
800a2084:	00a9c703          	lbu	a4,10(s3)
800a2088:	01069693          	slli	a3,a3,0x10
800a208c:	01879793          	slli	a5,a5,0x18
800a2090:	00d7e7b3          	or	a5,a5,a3
800a2094:	00c7e7b3          	or	a5,a5,a2
800a2098:	00871713          	slli	a4,a4,0x8
800a209c:	00e7e7b3          	or	a5,a5,a4
800a20a0:	00fca023          	sw	a5,0(s9)
800a20a4:	00c9ca03          	lbu	s4,12(s3)
800a20a8:	00d9c703          	lbu	a4,13(s3)
800a20ac:	00f9c683          	lbu	a3,15(s3)
800a20b0:	00e9c783          	lbu	a5,14(s3)
800a20b4:	01071713          	slli	a4,a4,0x10
800a20b8:	018a1a13          	slli	s4,s4,0x18
800a20bc:	00ea6a33          	or	s4,s4,a4
800a20c0:	00da6a33          	or	s4,s4,a3
800a20c4:	00879793          	slli	a5,a5,0x8
800a20c8:	00fa6a33          	or	s4,s4,a5
800a20cc:	0144a023          	sw	s4,0(s1)
800a20d0:	000c2503          	lw	a0,0(s8)
800a20d4:	000ca783          	lw	a5,0(s9)
800a20d8:	00251513          	slli	a0,a0,0x2
800a20dc:	02fa0a33          	mul	s4,s4,a5
800a20e0:	505000ef          	jal	800a2de4 <malloc>
800a20e4:	000c2783          	lw	a5,0(s8)
800a20e8:	00a12623          	sw	a0,12(sp)
800a20ec:	0af05a63          	blez	a5,800a21a0 <read_images+0x194>
800a20f0:	800f17b7          	lui	a5,0x800f1
800a20f4:	69c7a483          	lw	s1,1692(a5) # 800f169c <__clz_tab+0x104>
800a20f8:	03512a23          	sw	s5,52(sp)
800a20fc:	03612823          	sw	s6,48(sp)
800a2100:	03712623          	sw	s7,44(sp)
800a2104:	05212023          	sw	s2,64(sp)
800a2108:	03a12023          	sw	s10,32(sp)
800a210c:	01b12e23          	sw	s11,28(sp)
800a2110:	01098993          	addi	s3,s3,16
800a2114:	002a1b93          	slli	s7,s4,0x2
800a2118:	00050b13          	mv	s6,a0
800a211c:	00000a93          	li	s5,0
800a2120:	000b8513          	mv	a0,s7
800a2124:	4c1000ef          	jal	800a2de4 <malloc>
800a2128:	00ab2023          	sw	a0,0(s6) # 80151000 <n_neurons>
800a212c:	00050913          	mv	s2,a0
800a2130:	03405a63          	blez	s4,800a2164 <read_images+0x158>
800a2134:	00050d13          	mv	s10,a0
800a2138:	00ab8433          	add	s0,s7,a0
800a213c:	00098d93          	mv	s11,s3
800a2140:	000dc503          	lbu	a0,0(s11)
800a2144:	004d0d13          	addi	s10,s10,4
800a2148:	001d8d93          	addi	s11,s11,1
800a214c:	681050ef          	jal	800a7fcc <__floatunsisf>
800a2150:	00048593          	mv	a1,s1
800a2154:	138050ef          	jal	800a728c <__divsf3>
800a2158:	fead2e23          	sw	a0,-4(s10)
800a215c:	fe8d12e3          	bne	s10,s0,800a2140 <read_images+0x134>
800a2160:	014989b3          	add	s3,s3,s4
800a2164:	00812783          	lw	a5,8(sp)
800a2168:	000ca603          	lw	a2,0(s9)
800a216c:	00090513          	mv	a0,s2
800a2170:	0007a583          	lw	a1,0(a5)
800a2174:	001a8a93          	addi	s5,s5,1
800a2178:	004b0b13          	addi	s6,s6,4
800a217c:	c15ff0ef          	jal	800a1d90 <width_normalize>
800a2180:	000c2783          	lw	a5,0(s8)
800a2184:	f8facee3          	blt	s5,a5,800a2120 <read_images+0x114>
800a2188:	04012903          	lw	s2,64(sp)
800a218c:	03412a83          	lw	s5,52(sp)
800a2190:	03012b03          	lw	s6,48(sp)
800a2194:	02c12b83          	lw	s7,44(sp)
800a2198:	02012d03          	lw	s10,32(sp)
800a219c:	01c12d83          	lw	s11,28(sp)
800a21a0:	04c12083          	lw	ra,76(sp)
800a21a4:	04812403          	lw	s0,72(sp)
800a21a8:	00c12503          	lw	a0,12(sp)
800a21ac:	04412483          	lw	s1,68(sp)
800a21b0:	03c12983          	lw	s3,60(sp)
800a21b4:	03812a03          	lw	s4,56(sp)
800a21b8:	02812c03          	lw	s8,40(sp)
800a21bc:	02412c83          	lw	s9,36(sp)
800a21c0:	05010113          	addi	sp,sp,80
800a21c4:	00008067          	ret

800a21c8 <read_labels>:
800a21c8:	ff010113          	addi	sp,sp,-16
800a21cc:	01212023          	sw	s2,0(sp)
800a21d0:	80152937          	lui	s2,0x80152
800a21d4:	aec92583          	lw	a1,-1300(s2) # 80151aec <fbuf>
800a21d8:	00112623          	sw	ra,12(sp)
800a21dc:	00812423          	sw	s0,8(sp)
800a21e0:	00912223          	sw	s1,4(sp)
800a21e4:	105010ef          	jal	800a3ae8 <read_file>
800a21e8:	ff850413          	addi	s0,a0,-8
800a21ec:	0ff47413          	zext.b	s0,s0
800a21f0:	00040513          	mv	a0,s0
800a21f4:	3f1000ef          	jal	800a2de4 <malloc>
800a21f8:	00050493          	mv	s1,a0
800a21fc:	02050a63          	beqz	a0,800a2230 <read_labels+0x68>
800a2200:	aec92583          	lw	a1,-1300(s2)
800a2204:	00040613          	mv	a2,s0
800a2208:	00048513          	mv	a0,s1
800a220c:	00858593          	addi	a1,a1,8
800a2210:	0f8010ef          	jal	800a3308 <memcpy>
800a2214:	00c12083          	lw	ra,12(sp)
800a2218:	00812403          	lw	s0,8(sp)
800a221c:	00012903          	lw	s2,0(sp)
800a2220:	00048513          	mv	a0,s1
800a2224:	00412483          	lw	s1,4(sp)
800a2228:	01010113          	addi	sp,sp,16
800a222c:	00008067          	ret
800a2230:	800f1537          	lui	a0,0x800f1
800a2234:	1ac50513          	addi	a0,a0,428 # 800f11ac <__clzsi2+0x48ff0>
800a2238:	11d000ef          	jal	800a2b54 <printf>
800a223c:	fff00513          	li	a0,-1
800a2240:	359000ef          	jal	800a2d98 <exit>
800a2244:	fbdff06f          	j	800a2200 <read_labels+0x38>

800a2248 <read_weights>:
800a2248:	fe010113          	addi	sp,sp,-32
800a224c:	01312623          	sw	s3,12(sp)
800a2250:	801529b7          	lui	s3,0x80152
800a2254:	01212823          	sw	s2,16(sp)
800a2258:	00058913          	mv	s2,a1
800a225c:	aec9a583          	lw	a1,-1300(s3) # 80151aec <fbuf>
800a2260:	00812c23          	sw	s0,24(sp)
800a2264:	00912a23          	sw	s1,20(sp)
800a2268:	01412423          	sw	s4,8(sp)
800a226c:	00112e23          	sw	ra,28(sp)
800a2270:	00060493          	mv	s1,a2
800a2274:	075010ef          	jal	800a3ae8 <read_file>
800a2278:	aec9a583          	lw	a1,-1300(s3)
800a227c:	00050a13          	mv	s4,a0
800a2280:	0005a783          	lw	a5,0(a1)
800a2284:	00458413          	addi	s0,a1,4
800a2288:	00f92023          	sw	a5,0(s2)
800a228c:	08f05863          	blez	a5,800a231c <read_weights+0xd4>
800a2290:	00048793          	mv	a5,s1
800a2294:	00000713          	li	a4,0
800a2298:	00042683          	lw	a3,0(s0)
800a229c:	00170713          	addi	a4,a4,1
800a22a0:	00440413          	addi	s0,s0,4
800a22a4:	00d7a023          	sw	a3,0(a5)
800a22a8:	00092683          	lw	a3,0(s2)
800a22ac:	00478793          	addi	a5,a5,4
800a22b0:	fed744e3          	blt	a4,a3,800a2298 <read_weights+0x50>
800a22b4:	40b40533          	sub	a0,s0,a1
800a22b8:	40aa0533          	sub	a0,s4,a0
800a22bc:	329000ef          	jal	800a2de4 <malloc>
800a22c0:	00050493          	mv	s1,a0
800a22c4:	04050063          	beqz	a0,800a2304 <read_weights+0xbc>
800a22c8:	aec9a783          	lw	a5,-1300(s3)
800a22cc:	00040593          	mv	a1,s0
800a22d0:	00048513          	mv	a0,s1
800a22d4:	40f40433          	sub	s0,s0,a5
800a22d8:	408a0633          	sub	a2,s4,s0
800a22dc:	02c010ef          	jal	800a3308 <memcpy>
800a22e0:	01c12083          	lw	ra,28(sp)
800a22e4:	01812403          	lw	s0,24(sp)
800a22e8:	01012903          	lw	s2,16(sp)
800a22ec:	00c12983          	lw	s3,12(sp)
800a22f0:	00812a03          	lw	s4,8(sp)
800a22f4:	00048513          	mv	a0,s1
800a22f8:	01412483          	lw	s1,20(sp)
800a22fc:	02010113          	addi	sp,sp,32
800a2300:	00008067          	ret
800a2304:	800f1537          	lui	a0,0x800f1
800a2308:	1cc50513          	addi	a0,a0,460 # 800f11cc <__clzsi2+0x49010>
800a230c:	049000ef          	jal	800a2b54 <printf>
800a2310:	fff00513          	li	a0,-1
800a2314:	285000ef          	jal	800a2d98 <exit>
800a2318:	fb1ff06f          	j	800a22c8 <read_weights+0x80>
800a231c:	00400513          	li	a0,4
800a2320:	f99ff06f          	j	800a22b8 <read_weights+0x70>

800a2324 <crt0>:
800a2324:	808027b7          	lui	a5,0x80802
800a2328:	80152737          	lui	a4,0x80152
800a232c:	80078793          	addi	a5,a5,-2048 # 80801800 <__stack_top>
800a2330:	b4f72623          	sw	a5,-1204(a4) # 80151b4c <stack_top_0>
800a2334:	801522b7          	lui	t0,0x80152
800a2338:	b4c2a103          	lw	sp,-1204(t0) # 80151b4c <stack_top_0>
800a233c:	cc5fe06f          	j	800a1000 <main>

800a2340 <getchar>:
800a2340:	ff010113          	addi	sp,sp,-16
800a2344:	00112623          	sw	ra,12(sp)
800a2348:	220010ef          	jal	800a3568 <inbyte>
800a234c:	00c12083          	lw	ra,12(sp)
800a2350:	01010113          	addi	sp,sp,16
800a2354:	00008067          	ret

800a2358 <putchar>:
800a2358:	ff010113          	addi	sp,sp,-16
800a235c:	00812423          	sw	s0,8(sp)
800a2360:	00050413          	mv	s0,a0
800a2364:	0ff57513          	zext.b	a0,a0
800a2368:	00112623          	sw	ra,12(sp)
800a236c:	220010ef          	jal	800a358c <outbyte>
800a2370:	00c12083          	lw	ra,12(sp)
800a2374:	00040513          	mv	a0,s0
800a2378:	00812403          	lw	s0,8(sp)
800a237c:	01010113          	addi	sp,sp,16
800a2380:	00008067          	ret

800a2384 <fputs>:
800a2384:	801527b7          	lui	a5,0x80152
800a2388:	af47a783          	lw	a5,-1292(a5) # 80151af4 <stdout>
800a238c:	ff010113          	addi	sp,sp,-16
800a2390:	00112623          	sw	ra,12(sp)
800a2394:	00812423          	sw	s0,8(sp)
800a2398:	04b78263          	beq	a5,a1,800a23dc <fputs+0x58>
800a239c:	800f1437          	lui	s0,0x800f1
800a23a0:	00a00513          	li	a0,10
800a23a4:	1ec40413          	addi	s0,s0,492 # 800f11ec <__clzsi2+0x49030>
800a23a8:	00140413          	addi	s0,s0,1
800a23ac:	1e0010ef          	jal	800a358c <outbyte>
800a23b0:	00044503          	lbu	a0,0(s0)
800a23b4:	fe051ae3          	bnez	a0,800a23a8 <fputs+0x24>
800a23b8:	00a00513          	li	a0,10
800a23bc:	1d0010ef          	jal	800a358c <outbyte>
800a23c0:	00a00513          	li	a0,10
800a23c4:	1c8010ef          	jal	800a358c <outbyte>
800a23c8:	00c12083          	lw	ra,12(sp)
800a23cc:	00812403          	lw	s0,8(sp)
800a23d0:	00a00513          	li	a0,10
800a23d4:	01010113          	addi	sp,sp,16
800a23d8:	00008067          	ret
800a23dc:	00050413          	mv	s0,a0
800a23e0:	00054503          	lbu	a0,0(a0)
800a23e4:	fc050ee3          	beqz	a0,800a23c0 <fputs+0x3c>
800a23e8:	00140413          	addi	s0,s0,1
800a23ec:	1a0010ef          	jal	800a358c <outbyte>
800a23f0:	00044503          	lbu	a0,0(s0)
800a23f4:	fe051ae3          	bnez	a0,800a23e8 <fputs+0x64>
800a23f8:	00a00513          	li	a0,10
800a23fc:	190010ef          	jal	800a358c <outbyte>
800a2400:	00c12083          	lw	ra,12(sp)
800a2404:	00812403          	lw	s0,8(sp)
800a2408:	00a00513          	li	a0,10
800a240c:	01010113          	addi	sp,sp,16
800a2410:	00008067          	ret

800a2414 <fgets>:
800a2414:	801527b7          	lui	a5,0x80152
800a2418:	af87a783          	lw	a5,-1288(a5) # 80151af8 <stdin>
800a241c:	fe010113          	addi	sp,sp,-32
800a2420:	00112e23          	sw	ra,28(sp)
800a2424:	00812c23          	sw	s0,24(sp)
800a2428:	06c79e63          	bne	a5,a2,800a24a4 <fgets+0x90>
800a242c:	00912a23          	sw	s1,20(sp)
800a2430:	01212823          	sw	s2,16(sp)
800a2434:	01312623          	sw	s3,12(sp)
800a2438:	01412423          	sw	s4,8(sp)
800a243c:	00050493          	mv	s1,a0
800a2440:	00050413          	mv	s0,a0
800a2444:	00a00913          	li	s2,10
800a2448:	00d00993          	li	s3,13
800a244c:	00b50a33          	add	s4,a0,a1
800a2450:	00059c63          	bnez	a1,800a2468 <fgets+0x54>
800a2454:	0200006f          	j	800a2474 <fgets+0x60>
800a2458:	01350e63          	beq	a0,s3,800a2474 <fgets+0x60>
800a245c:	00140413          	addi	s0,s0,1
800a2460:	12c010ef          	jal	800a358c <outbyte>
800a2464:	01440863          	beq	s0,s4,800a2474 <fgets+0x60>
800a2468:	100010ef          	jal	800a3568 <inbyte>
800a246c:	00a40023          	sb	a0,0(s0)
800a2470:	ff2514e3          	bne	a0,s2,800a2458 <fgets+0x44>
800a2474:	00a00513          	li	a0,10
800a2478:	114010ef          	jal	800a358c <outbyte>
800a247c:	00040023          	sb	zero,0(s0)
800a2480:	01c12083          	lw	ra,28(sp)
800a2484:	01812403          	lw	s0,24(sp)
800a2488:	01012903          	lw	s2,16(sp)
800a248c:	00c12983          	lw	s3,12(sp)
800a2490:	00812a03          	lw	s4,8(sp)
800a2494:	00048513          	mv	a0,s1
800a2498:	01412483          	lw	s1,20(sp)
800a249c:	02010113          	addi	sp,sp,32
800a24a0:	00008067          	ret
800a24a4:	800f1437          	lui	s0,0x800f1
800a24a8:	00a00513          	li	a0,10
800a24ac:	21840413          	addi	s0,s0,536 # 800f1218 <__clzsi2+0x4905c>
800a24b0:	00140413          	addi	s0,s0,1
800a24b4:	0d8010ef          	jal	800a358c <outbyte>
800a24b8:	00044503          	lbu	a0,0(s0)
800a24bc:	fe051ae3          	bnez	a0,800a24b0 <fgets+0x9c>
800a24c0:	00a00513          	li	a0,10
800a24c4:	0c8010ef          	jal	800a358c <outbyte>
800a24c8:	01c12083          	lw	ra,28(sp)
800a24cc:	01812403          	lw	s0,24(sp)
800a24d0:	00000513          	li	a0,0
800a24d4:	02010113          	addi	sp,sp,32
800a24d8:	00008067          	ret

800a24dc <putd>:
800a24dc:	fd010113          	addi	sp,sp,-48
800a24e0:	00d037b3          	snez	a5,a3
800a24e4:	3b9ad737          	lui	a4,0x3b9ad
800a24e8:	02912223          	sw	s1,36(sp)
800a24ec:	03212023          	sw	s2,32(sp)
800a24f0:	01312e23          	sw	s3,28(sp)
800a24f4:	02112623          	sw	ra,44(sp)
800a24f8:	02812423          	sw	s0,40(sp)
800a24fc:	00068913          	mv	s2,a3
800a2500:	40f585b3          	sub	a1,a1,a5
800a2504:	00a00813          	li	a6,10
800a2508:	00000493          	li	s1,0
800a250c:	00100993          	li	s3,1
800a2510:	a0070713          	addi	a4,a4,-1536 # 3b9aca00 <__heap_size+0x3b7aca00>
800a2514:	00a00893          	li	a7,10
800a2518:	0300006f          	j	800a2548 <putd+0x6c>
800a251c:	02f576b3          	remu	a3,a0,a5
800a2520:	00000993          	li	s3,0
800a2524:	02f557b3          	divu	a5,a0,a5
800a2528:	00068513          	mv	a0,a3
800a252c:	01048693          	addi	a3,s1,16
800a2530:	002686b3          	add	a3,a3,sp
800a2534:	00148493          	addi	s1,s1,1
800a2538:	03078793          	addi	a5,a5,48
800a253c:	fef68823          	sb	a5,-16(a3)
800a2540:	fff80813          	addi	a6,a6,-1
800a2544:	00080e63          	beqz	a6,800a2560 <putd+0x84>
800a2548:	00070793          	mv	a5,a4
800a254c:	03175733          	divu	a4,a4,a7
800a2550:	fcf576e3          	bgeu	a0,a5,800a251c <putd+0x40>
800a2554:	fe0996e3          	bnez	s3,800a2540 <putd+0x64>
800a2558:	00050693          	mv	a3,a0
800a255c:	fc5ff06f          	j	800a2520 <putd+0x44>
800a2560:	08099c63          	bnez	s3,800a25f8 <putd+0x11c>
800a2564:	00014783          	lbu	a5,0(sp)
800a2568:	00048993          	mv	s3,s1
800a256c:	00f10023          	sb	a5,0(sp)
800a2570:	01048793          	addi	a5,s1,16
800a2574:	002787b3          	add	a5,a5,sp
800a2578:	fe078823          	sb	zero,-16(a5)
800a257c:	fff58413          	addi	s0,a1,-1
800a2580:	04060a63          	beqz	a2,800a25d4 <putd+0xf8>
800a2584:	08091063          	bnez	s2,800a2604 <putd+0x128>
800a2588:	00944a63          	blt	s0,s1,800a259c <putd+0xc0>
800a258c:	03000513          	li	a0,48
800a2590:	fff40413          	addi	s0,s0,-1
800a2594:	7f9000ef          	jal	800a358c <outbyte>
800a2598:	fe945ae3          	bge	s0,s1,800a258c <putd+0xb0>
800a259c:	00010413          	mv	s0,sp
800a25a0:	008984b3          	add	s1,s3,s0
800a25a4:	00098a63          	beqz	s3,800a25b8 <putd+0xdc>
800a25a8:	00044503          	lbu	a0,0(s0)
800a25ac:	00140413          	addi	s0,s0,1
800a25b0:	7dd000ef          	jal	800a358c <outbyte>
800a25b4:	fe941ae3          	bne	s0,s1,800a25a8 <putd+0xcc>
800a25b8:	02c12083          	lw	ra,44(sp)
800a25bc:	02812403          	lw	s0,40(sp)
800a25c0:	02412483          	lw	s1,36(sp)
800a25c4:	02012903          	lw	s2,32(sp)
800a25c8:	01c12983          	lw	s3,28(sp)
800a25cc:	03010113          	addi	sp,sp,48
800a25d0:	00008067          	ret
800a25d4:	00944a63          	blt	s0,s1,800a25e8 <putd+0x10c>
800a25d8:	02000513          	li	a0,32
800a25dc:	fff40413          	addi	s0,s0,-1
800a25e0:	7ad000ef          	jal	800a358c <outbyte>
800a25e4:	fe945ae3          	bge	s0,s1,800a25d8 <putd+0xfc>
800a25e8:	fa090ae3          	beqz	s2,800a259c <putd+0xc0>
800a25ec:	02d00513          	li	a0,45
800a25f0:	79d000ef          	jal	800a358c <outbyte>
800a25f4:	fa9ff06f          	j	800a259c <putd+0xc0>
800a25f8:	03000793          	li	a5,48
800a25fc:	00100493          	li	s1,1
800a2600:	f6dff06f          	j	800a256c <putd+0x90>
800a2604:	02d00513          	li	a0,45
800a2608:	785000ef          	jal	800a358c <outbyte>
800a260c:	f89450e3          	bge	s0,s1,800a258c <putd+0xb0>
800a2610:	f8dff06f          	j	800a259c <putd+0xc0>

800a2614 <putx>:
800a2614:	01f6d793          	srli	a5,a3,0x1f
800a2618:	00f68833          	add	a6,a3,a5
800a261c:	00187813          	andi	a6,a6,1
800a2620:	40f80833          	sub	a6,a6,a5
800a2624:	800f17b7          	lui	a5,0x800f1
800a2628:	fd010113          	addi	sp,sp,-48
800a262c:	24478793          	addi	a5,a5,580 # 800f1244 <__clzsi2+0x49088>
800a2630:	00281813          	slli	a6,a6,0x2
800a2634:	00f12623          	sw	a5,12(sp)
800a2638:	800f17b7          	lui	a5,0x800f1
800a263c:	25878793          	addi	a5,a5,600 # 800f1258 <__clzsi2+0x4909c>
800a2640:	02080713          	addi	a4,a6,32
800a2644:	02812423          	sw	s0,40(sp)
800a2648:	00f12823          	sw	a5,16(sp)
800a264c:	02112623          	sw	ra,44(sp)
800a2650:	02912223          	sw	s1,36(sp)
800a2654:	01c00793          	li	a5,28
800a2658:	00000413          	li	s0,0
800a265c:	00100e93          	li	t4,1
800a2660:	00270833          	add	a6,a4,sp
800a2664:	02000e13          	li	t3,32
800a2668:	ffc00313          	li	t1,-4
800a266c:	0300006f          	j	800a269c <putx+0x88>
800a2670:	00e8d533          	srl	a0,a7,a4
800a2674:	00000e93          	li	t4,0
800a2678:	fec82703          	lw	a4,-20(a6)
800a267c:	ffc78793          	addi	a5,a5,-4
800a2680:	00d70733          	add	a4,a4,a3
800a2684:	00074683          	lbu	a3,0(a4)
800a2688:	02040713          	addi	a4,s0,32
800a268c:	00270733          	add	a4,a4,sp
800a2690:	fed70a23          	sb	a3,-12(a4)
800a2694:	00140413          	addi	s0,s0,1
800a2698:	02678263          	beq	a5,t1,800a26bc <putx+0xa8>
800a269c:	40fe0733          	sub	a4,t3,a5
800a26a0:	00f556b3          	srl	a3,a0,a5
800a26a4:	00e518b3          	sll	a7,a0,a4
800a26a8:	fc0694e3          	bnez	a3,800a2670 <putx+0x5c>
800a26ac:	fc0e86e3          	beqz	t4,800a2678 <putx+0x64>
800a26b0:	fc0614e3          	bnez	a2,800a2678 <putx+0x64>
800a26b4:	ffc78793          	addi	a5,a5,-4
800a26b8:	fe6792e3          	bne	a5,t1,800a269c <putx+0x88>
800a26bc:	02040793          	addi	a5,s0,32
800a26c0:	002787b3          	add	a5,a5,sp
800a26c4:	fe078a23          	sb	zero,-12(a5)
800a26c8:	fff58493          	addi	s1,a1,-1
800a26cc:	0084cc63          	blt	s1,s0,800a26e4 <putx+0xd0>
800a26d0:	04060263          	beqz	a2,800a2714 <putx+0x100>
800a26d4:	03000513          	li	a0,48
800a26d8:	fff48493          	addi	s1,s1,-1
800a26dc:	6b1000ef          	jal	800a358c <outbyte>
800a26e0:	fe84dae3          	bge	s1,s0,800a26d4 <putx+0xc0>
800a26e4:	00805e63          	blez	s0,800a2700 <putx+0xec>
800a26e8:	01410493          	addi	s1,sp,20
800a26ec:	00940433          	add	s0,s0,s1
800a26f0:	0004c503          	lbu	a0,0(s1)
800a26f4:	00148493          	addi	s1,s1,1
800a26f8:	695000ef          	jal	800a358c <outbyte>
800a26fc:	fe941ae3          	bne	s0,s1,800a26f0 <putx+0xdc>
800a2700:	02c12083          	lw	ra,44(sp)
800a2704:	02812403          	lw	s0,40(sp)
800a2708:	02412483          	lw	s1,36(sp)
800a270c:	03010113          	addi	sp,sp,48
800a2710:	00008067          	ret
800a2714:	02000513          	li	a0,32
800a2718:	fff48493          	addi	s1,s1,-1
800a271c:	671000ef          	jal	800a358c <outbyte>
800a2720:	fc84c2e3          	blt	s1,s0,800a26e4 <putx+0xd0>
800a2724:	02000513          	li	a0,32
800a2728:	fff48493          	addi	s1,s1,-1
800a272c:	661000ef          	jal	800a358c <outbyte>
800a2730:	fe84d2e3          	bge	s1,s0,800a2714 <putx+0x100>
800a2734:	fb1ff06f          	j	800a26e4 <putx+0xd0>

800a2738 <putld>:
800a2738:	f9010113          	addi	sp,sp,-112
800a273c:	06812423          	sw	s0,104(sp)
800a2740:	07212023          	sw	s2,96(sp)
800a2744:	05612823          	sw	s6,80(sp)
800a2748:	03b12e23          	sw	s11,60(sp)
800a274c:	06112623          	sw	ra,108(sp)
800a2750:	06912223          	sw	s1,100(sp)
800a2754:	05312e23          	sw	s3,92(sp)
800a2758:	05412c23          	sw	s4,88(sp)
800a275c:	05512a23          	sw	s5,84(sp)
800a2760:	05712623          	sw	s7,76(sp)
800a2764:	05812423          	sw	s8,72(sp)
800a2768:	05912223          	sw	s9,68(sp)
800a276c:	05a12023          	sw	s10,64(sp)
800a2770:	00d12623          	sw	a3,12(sp)
800a2774:	00050d93          	mv	s11,a0
800a2778:	00058413          	mv	s0,a1
800a277c:	00060913          	mv	s2,a2
800a2780:	00000b13          	li	s6,0
800a2784:	00071663          	bnez	a4,800a2790 <putld+0x58>
800a2788:	00070b13          	mv	s6,a4
800a278c:	1e05c063          	bltz	a1,800a296c <putld+0x234>
800a2790:	01634c37          	lui	s8,0x1634
800a2794:	ccccdcb7          	lui	s9,0xccccd
800a2798:	ccccd9b7          	lui	s3,0xccccd
800a279c:	01200d13          	li	s10,18
800a27a0:	00000493          	li	s1,0
800a27a4:	00100a13          	li	s4,1
800a27a8:	5d8a0bb7          	lui	s7,0x5d8a0
800a27ac:	578c0c13          	addi	s8,s8,1400 # 1634578 <__heap_size+0x1434578>
800a27b0:	00500a93          	li	s5,5
800a27b4:	ccdc8c93          	addi	s9,s9,-819 # cccccccd <__stack_top+0x4c4cb4cd>
800a27b8:	ccc98993          	addi	s3,s3,-820 # cccccccc <__stack_top+0x4c4cb4cc>
800a27bc:	04c0006f          	j	800a2808 <putld+0xd0>
800a27c0:	02a687b3          	mul	a5,a3,a0
800a27c4:	02a70733          	mul	a4,a4,a0
800a27c8:	40fd87b3          	sub	a5,s11,a5
800a27cc:	00fdb5b3          	sltu	a1,s11,a5
800a27d0:	00078d93          	mv	s11,a5
800a27d4:	02d536b3          	mulhu	a3,a0,a3
800a27d8:	00d70733          	add	a4,a4,a3
800a27dc:	40e40733          	sub	a4,s0,a4
800a27e0:	40b70433          	sub	s0,a4,a1
800a27e4:	02048793          	addi	a5,s1,32
800a27e8:	01010713          	addi	a4,sp,16
800a27ec:	00e787b3          	add	a5,a5,a4
800a27f0:	03050513          	addi	a0,a0,48
800a27f4:	fea78423          	sb	a0,-24(a5)
800a27f8:	fffd0d13          	addi	s10,s10,-1
800a27fc:	00148493          	addi	s1,s1,1
800a2800:	00000a13          	li	s4,0
800a2804:	060d0a63          	beqz	s10,800a2878 <putld+0x140>
800a2808:	000b8613          	mv	a2,s7
800a280c:	000c0693          	mv	a3,s8
800a2810:	000d8513          	mv	a0,s11
800a2814:	00040593          	mv	a1,s0
800a2818:	2c0020ef          	jal	800a4ad8 <__udivdi3>
800a281c:	018b87b3          	add	a5,s7,s8
800a2820:	0177b733          	sltu	a4,a5,s7
800a2824:	00e787b3          	add	a5,a5,a4
800a2828:	0357f7b3          	remu	a5,a5,s5
800a282c:	000c0713          	mv	a4,s8
800a2830:	000b8693          	mv	a3,s7
800a2834:	40fb87b3          	sub	a5,s7,a5
800a2838:	00fbbc33          	sltu	s8,s7,a5
800a283c:	41870c33          	sub	s8,a4,s8
800a2840:	033785b3          	mul	a1,a5,s3
800a2844:	039c0c33          	mul	s8,s8,s9
800a2848:	0397b633          	mulhu	a2,a5,s9
800a284c:	00bc0c33          	add	s8,s8,a1
800a2850:	039787b3          	mul	a5,a5,s9
800a2854:	00cc0c33          	add	s8,s8,a2
800a2858:	01fc1613          	slli	a2,s8,0x1f
800a285c:	001c5c13          	srli	s8,s8,0x1
800a2860:	0017d793          	srli	a5,a5,0x1
800a2864:	00f66bb3          	or	s7,a2,a5
800a2868:	f4051ce3          	bnez	a0,800a27c0 <putld+0x88>
800a286c:	f60a0ce3          	beqz	s4,800a27e4 <putld+0xac>
800a2870:	fffd0d13          	addi	s10,s10,-1
800a2874:	f80d1ae3          	bnez	s10,800a2808 <putld+0xd0>
800a2878:	0e0a1063          	bnez	s4,800a2958 <putld+0x220>
800a287c:	01814783          	lbu	a5,24(sp)
800a2880:	00048993          	mv	s3,s1
800a2884:	41f4da13          	srai	s4,s1,0x1f
800a2888:	00f10c23          	sb	a5,24(sp)
800a288c:	01010713          	addi	a4,sp,16
800a2890:	02048793          	addi	a5,s1,32
800a2894:	00e787b3          	add	a5,a5,a4
800a2898:	fe078423          	sb	zero,-24(a5)
800a289c:	00c12783          	lw	a5,12(sp)
800a28a0:	fff90913          	addi	s2,s2,-1
800a28a4:	08078863          	beqz	a5,800a2934 <putld+0x1fc>
800a28a8:	0e0b1063          	bnez	s6,800a2988 <putld+0x250>
800a28ac:	00994a63          	blt	s2,s1,800a28c0 <putld+0x188>
800a28b0:	03000513          	li	a0,48
800a28b4:	fff90913          	addi	s2,s2,-1
800a28b8:	4d5000ef          	jal	800a358c <outbyte>
800a28bc:	fe995ae3          	bge	s2,s1,800a28b0 <putld+0x178>
800a28c0:	0149e7b3          	or	a5,s3,s4
800a28c4:	01810493          	addi	s1,sp,24
800a28c8:	00000413          	li	s0,0
800a28cc:	00000913          	li	s2,0
800a28d0:	02078463          	beqz	a5,800a28f8 <putld+0x1c0>
800a28d4:	0004c503          	lbu	a0,0(s1)
800a28d8:	00148493          	addi	s1,s1,1
800a28dc:	4b1000ef          	jal	800a358c <outbyte>
800a28e0:	00140793          	addi	a5,s0,1
800a28e4:	0087b733          	sltu	a4,a5,s0
800a28e8:	01270933          	add	s2,a4,s2
800a28ec:	00078413          	mv	s0,a5
800a28f0:	fef992e3          	bne	s3,a5,800a28d4 <putld+0x19c>
800a28f4:	ff2a10e3          	bne	s4,s2,800a28d4 <putld+0x19c>
800a28f8:	06c12083          	lw	ra,108(sp)
800a28fc:	06812403          	lw	s0,104(sp)
800a2900:	06412483          	lw	s1,100(sp)
800a2904:	06012903          	lw	s2,96(sp)
800a2908:	05c12983          	lw	s3,92(sp)
800a290c:	05812a03          	lw	s4,88(sp)
800a2910:	05412a83          	lw	s5,84(sp)
800a2914:	05012b03          	lw	s6,80(sp)
800a2918:	04c12b83          	lw	s7,76(sp)
800a291c:	04812c03          	lw	s8,72(sp)
800a2920:	04412c83          	lw	s9,68(sp)
800a2924:	04012d03          	lw	s10,64(sp)
800a2928:	03c12d83          	lw	s11,60(sp)
800a292c:	07010113          	addi	sp,sp,112
800a2930:	00008067          	ret
800a2934:	00994a63          	blt	s2,s1,800a2948 <putld+0x210>
800a2938:	02000513          	li	a0,32
800a293c:	fff90913          	addi	s2,s2,-1
800a2940:	44d000ef          	jal	800a358c <outbyte>
800a2944:	fe995ae3          	bge	s2,s1,800a2938 <putld+0x200>
800a2948:	f60b0ce3          	beqz	s6,800a28c0 <putld+0x188>
800a294c:	02d00513          	li	a0,45
800a2950:	43d000ef          	jal	800a358c <outbyte>
800a2954:	f6dff06f          	j	800a28c0 <putld+0x188>
800a2958:	00100993          	li	s3,1
800a295c:	00000a13          	li	s4,0
800a2960:	03000793          	li	a5,48
800a2964:	00100493          	li	s1,1
800a2968:	f21ff06f          	j	800a2888 <putld+0x150>
800a296c:	00a037b3          	snez	a5,a0
800a2970:	40b00433          	neg	s0,a1
800a2974:	fff60913          	addi	s2,a2,-1
800a2978:	40f40433          	sub	s0,s0,a5
800a297c:	40a00db3          	neg	s11,a0
800a2980:	00100b13          	li	s6,1
800a2984:	e0dff06f          	j	800a2790 <putld+0x58>
800a2988:	02d00513          	li	a0,45
800a298c:	401000ef          	jal	800a358c <outbyte>
800a2990:	f29950e3          	bge	s2,s1,800a28b0 <putld+0x178>
800a2994:	f2dff06f          	j	800a28c0 <putld+0x188>

800a2998 <putf>:
800a2998:	fc010113          	addi	sp,sp,-64
800a299c:	03612023          	sw	s6,32(sp)
800a29a0:	01712e23          	sw	s7,28(sp)
800a29a4:	01812c23          	sw	s8,24(sp)
800a29a8:	01912a23          	sw	s9,20(sp)
800a29ac:	01a12823          	sw	s10,16(sp)
800a29b0:	02112e23          	sw	ra,60(sp)
800a29b4:	02812c23          	sw	s0,56(sp)
800a29b8:	02912a23          	sw	s1,52(sp)
800a29bc:	03212823          	sw	s2,48(sp)
800a29c0:	03312623          	sw	s3,44(sp)
800a29c4:	03412423          	sw	s4,40(sp)
800a29c8:	00070b13          	mv	s6,a4
800a29cc:	00050c93          	mv	s9,a0
800a29d0:	00058c13          	mv	s8,a1
800a29d4:	00060b93          	mv	s7,a2
800a29d8:	00068d13          	mv	s10,a3
800a29dc:	14e05e63          	blez	a4,800a2b38 <putf+0x1a0>
800a29e0:	800f17b7          	lui	a5,0x800f1
800a29e4:	800f1737          	lui	a4,0x800f1
800a29e8:	6b07a983          	lw	s3,1712(a5) # 800f16b0 <__clz_tab+0x118>
800a29ec:	6b47a903          	lw	s2,1716(a5)
800a29f0:	800f17b7          	lui	a5,0x800f1
800a29f4:	03512223          	sw	s5,36(sp)
800a29f8:	6a872483          	lw	s1,1704(a4) # 800f16a8 <__clz_tab+0x110>
800a29fc:	6ac72403          	lw	s0,1708(a4)
800a2a00:	6b87aa03          	lw	s4,1720(a5) # 800f16b8 <__clz_tab+0x120>
800a2a04:	6bc7aa83          	lw	s5,1724(a5)
800a2a08:	01b12623          	sw	s11,12(sp)
800a2a0c:	00000d93          	li	s11,0
800a2a10:	00098513          	mv	a0,s3
800a2a14:	00090593          	mv	a1,s2
800a2a18:	000a0613          	mv	a2,s4
800a2a1c:	000a8693          	mv	a3,s5
800a2a20:	47d020ef          	jal	800a569c <__divdf3>
800a2a24:	00050993          	mv	s3,a0
800a2a28:	00058913          	mv	s2,a1
800a2a2c:	00048513          	mv	a0,s1
800a2a30:	00040593          	mv	a1,s0
800a2a34:	000a0613          	mv	a2,s4
800a2a38:	000a8693          	mv	a3,s5
800a2a3c:	4f4030ef          	jal	800a5f30 <__muldf3>
800a2a40:	001d8d93          	addi	s11,s11,1
800a2a44:	00050493          	mv	s1,a0
800a2a48:	00058413          	mv	s0,a1
800a2a4c:	fdbb12e3          	bne	s6,s11,800a2a10 <putf+0x78>
800a2a50:	02412a83          	lw	s5,36(sp)
800a2a54:	00c12d83          	lw	s11,12(sp)
800a2a58:	000c8513          	mv	a0,s9
800a2a5c:	000c0593          	mv	a1,s8
800a2a60:	00000613          	li	a2,0
800a2a64:	00000693          	li	a3,0
800a2a68:	3ec030ef          	jal	800a5e54 <__ledf2>
800a2a6c:	00000a13          	li	s4,0
800a2a70:	00055863          	bgez	a0,800a2a80 <putf+0xe8>
800a2a74:	800007b7          	lui	a5,0x80000
800a2a78:	0187cc33          	xor	s8,a5,s8
800a2a7c:	00100a13          	li	s4,1
800a2a80:	00098613          	mv	a2,s3
800a2a84:	00090693          	mv	a3,s2
800a2a88:	000c8513          	mv	a0,s9
800a2a8c:	000c0593          	mv	a1,s8
800a2a90:	478020ef          	jal	800a4f08 <__adddf3>
800a2a94:	00058913          	mv	s2,a1
800a2a98:	00050993          	mv	s3,a0
800a2a9c:	416b8bb3          	sub	s7,s7,s6
800a2aa0:	228040ef          	jal	800a6cc8 <__fixunsdfsi>
800a2aa4:	417005b3          	neg	a1,s7
800a2aa8:	41f5d593          	srai	a1,a1,0x1f
800a2aac:	fffb8b93          	addi	s7,s7,-1 # 5d89ffff <__heap_size+0x5d69ffff>
800a2ab0:	000a0693          	mv	a3,s4
800a2ab4:	000d0613          	mv	a2,s10
800a2ab8:	00bbf5b3          	and	a1,s7,a1
800a2abc:	00050a13          	mv	s4,a0
800a2ac0:	a1dff0ef          	jal	800a24dc <putd>
800a2ac4:	02e00513          	li	a0,46
800a2ac8:	2c5000ef          	jal	800a358c <outbyte>
800a2acc:	000a0513          	mv	a0,s4
800a2ad0:	274040ef          	jal	800a6d44 <__floatunsidf>
800a2ad4:	00050613          	mv	a2,a0
800a2ad8:	00058693          	mv	a3,a1
800a2adc:	00098513          	mv	a0,s3
800a2ae0:	00090593          	mv	a1,s2
800a2ae4:	23d030ef          	jal	800a6520 <__subdf3>
800a2ae8:	00048613          	mv	a2,s1
800a2aec:	00040693          	mv	a3,s0
800a2af0:	440030ef          	jal	800a5f30 <__muldf3>
800a2af4:	2d0040ef          	jal	800a6dc4 <__fixunsdfdi>
800a2af8:	03812403          	lw	s0,56(sp)
800a2afc:	03c12083          	lw	ra,60(sp)
800a2b00:	03412483          	lw	s1,52(sp)
800a2b04:	03012903          	lw	s2,48(sp)
800a2b08:	02c12983          	lw	s3,44(sp)
800a2b0c:	02812a03          	lw	s4,40(sp)
800a2b10:	01c12b83          	lw	s7,28(sp)
800a2b14:	01812c03          	lw	s8,24(sp)
800a2b18:	01412c83          	lw	s9,20(sp)
800a2b1c:	01012d03          	lw	s10,16(sp)
800a2b20:	000b0613          	mv	a2,s6
800a2b24:	02012b03          	lw	s6,32(sp)
800a2b28:	00100713          	li	a4,1
800a2b2c:	00100693          	li	a3,1
800a2b30:	04010113          	addi	sp,sp,64
800a2b34:	c05ff06f          	j	800a2738 <putld>
800a2b38:	800f1737          	lui	a4,0x800f1
800a2b3c:	800f17b7          	lui	a5,0x800f1
800a2b40:	6a872483          	lw	s1,1704(a4) # 800f16a8 <__clz_tab+0x110>
800a2b44:	6ac72403          	lw	s0,1708(a4)
800a2b48:	6b07a983          	lw	s3,1712(a5) # 800f16b0 <__clz_tab+0x118>
800a2b4c:	6b47a903          	lw	s2,1716(a5)
800a2b50:	f09ff06f          	j	800a2a58 <putf+0xc0>

800a2b54 <printf>:
800a2b54:	fa010113          	addi	sp,sp,-96
800a2b58:	02812c23          	sw	s0,56(sp)
800a2b5c:	04f12a23          	sw	a5,84(sp)
800a2b60:	02112e23          	sw	ra,60(sp)
800a2b64:	04b12223          	sw	a1,68(sp)
800a2b68:	04c12423          	sw	a2,72(sp)
800a2b6c:	04d12623          	sw	a3,76(sp)
800a2b70:	04e12823          	sw	a4,80(sp)
800a2b74:	05012c23          	sw	a6,88(sp)
800a2b78:	05112e23          	sw	a7,92(sp)
800a2b7c:	00050413          	mv	s0,a0
800a2b80:	00054503          	lbu	a0,0(a0)
800a2b84:	04410793          	addi	a5,sp,68
800a2b88:	00f12623          	sw	a5,12(sp)
800a2b8c:	06050263          	beqz	a0,800a2bf0 <printf+0x9c>
800a2b90:	03312623          	sw	s3,44(sp)
800a2b94:	800f19b7          	lui	s3,0x800f1
800a2b98:	02912a23          	sw	s1,52(sp)
800a2b9c:	03212823          	sw	s2,48(sp)
800a2ba0:	03412423          	sw	s4,40(sp)
800a2ba4:	03512223          	sw	s5,36(sp)
800a2ba8:	03612023          	sw	s6,32(sp)
800a2bac:	00600493          	li	s1,6
800a2bb0:	02500913          	li	s2,37
800a2bb4:	00900b13          	li	s6,9
800a2bb8:	02e00a93          	li	s5,46
800a2bbc:	02000a13          	li	s4,32
800a2bc0:	3f498993          	addi	s3,s3,1012 # 800f13f4 <__clzsi2+0x49238>
800a2bc4:	05250063          	beq	a0,s2,800a2c04 <printf+0xb0>
800a2bc8:	1c5000ef          	jal	800a358c <outbyte>
800a2bcc:	00144503          	lbu	a0,1(s0)
800a2bd0:	00140413          	addi	s0,s0,1
800a2bd4:	fe0518e3          	bnez	a0,800a2bc4 <printf+0x70>
800a2bd8:	03412483          	lw	s1,52(sp)
800a2bdc:	03012903          	lw	s2,48(sp)
800a2be0:	02c12983          	lw	s3,44(sp)
800a2be4:	02812a03          	lw	s4,40(sp)
800a2be8:	02412a83          	lw	s5,36(sp)
800a2bec:	02012b03          	lw	s6,32(sp)
800a2bf0:	03c12083          	lw	ra,60(sp)
800a2bf4:	03812403          	lw	s0,56(sp)
800a2bf8:	00000513          	li	a0,0
800a2bfc:	06010113          	addi	sp,sp,96
800a2c00:	00008067          	ret
800a2c04:	00144703          	lbu	a4,1(s0)
800a2c08:	00000813          	li	a6,0
800a2c0c:	00140413          	addi	s0,s0,1
800a2c10:	fd070793          	addi	a5,a4,-48
800a2c14:	0ff7f693          	zext.b	a3,a5
800a2c18:	0017b613          	seqz	a2,a5
800a2c1c:	02db6463          	bltu	s6,a3,800a2c44 <printf+0xf0>
800a2c20:	00144703          	lbu	a4,1(s0)
800a2c24:	00281593          	slli	a1,a6,0x2
800a2c28:	010585b3          	add	a1,a1,a6
800a2c2c:	00159593          	slli	a1,a1,0x1
800a2c30:	00b78833          	add	a6,a5,a1
800a2c34:	fd070793          	addi	a5,a4,-48
800a2c38:	0ff7f693          	zext.b	a3,a5
800a2c3c:	00140413          	addi	s0,s0,1
800a2c40:	fedb70e3          	bgeu	s6,a3,800a2c20 <printf+0xcc>
800a2c44:	f9470713          	addi	a4,a4,-108
800a2c48:	00173713          	seqz	a4,a4
800a2c4c:	00e40433          	add	s0,s0,a4
800a2c50:	00044503          	lbu	a0,0(s0)
800a2c54:	0f550e63          	beq	a0,s5,800a2d50 <printf+0x1fc>
800a2c58:	fa850793          	addi	a5,a0,-88
800a2c5c:	0ff7f793          	zext.b	a5,a5
800a2c60:	f6fa64e3          	bltu	s4,a5,800a2bc8 <printf+0x74>
800a2c64:	00279793          	slli	a5,a5,0x2
800a2c68:	013787b3          	add	a5,a5,s3
800a2c6c:	0007a783          	lw	a5,0(a5)
800a2c70:	00078067          	jr	a5
800a2c74:	00c12783          	lw	a5,12(sp)
800a2c78:	00000693          	li	a3,0
800a2c7c:	0007a503          	lw	a0,0(a5)
800a2c80:	00080593          	mv	a1,a6
800a2c84:	00478793          	addi	a5,a5,4
800a2c88:	00f12623          	sw	a5,12(sp)
800a2c8c:	989ff0ef          	jal	800a2614 <putx>
800a2c90:	f3dff06f          	j	800a2bcc <printf+0x78>
800a2c94:	00c12783          	lw	a5,12(sp)
800a2c98:	00000693          	li	a3,0
800a2c9c:	00080593          	mv	a1,a6
800a2ca0:	0007a503          	lw	a0,0(a5)
800a2ca4:	00478793          	addi	a5,a5,4
800a2ca8:	00f12623          	sw	a5,12(sp)
800a2cac:	831ff0ef          	jal	800a24dc <putd>
800a2cb0:	f1dff06f          	j	800a2bcc <printf+0x78>
800a2cb4:	00c12783          	lw	a5,12(sp)
800a2cb8:	01712e23          	sw	s7,28(sp)
800a2cbc:	0007ab83          	lw	s7,0(a5)
800a2cc0:	00478793          	addi	a5,a5,4
800a2cc4:	00f12623          	sw	a5,12(sp)
800a2cc8:	000bc503          	lbu	a0,0(s7)
800a2ccc:	00050a63          	beqz	a0,800a2ce0 <printf+0x18c>
800a2cd0:	001b8b93          	addi	s7,s7,1
800a2cd4:	0b9000ef          	jal	800a358c <outbyte>
800a2cd8:	000bc503          	lbu	a0,0(s7)
800a2cdc:	fe051ae3          	bnez	a0,800a2cd0 <printf+0x17c>
800a2ce0:	01c12b83          	lw	s7,28(sp)
800a2ce4:	ee9ff06f          	j	800a2bcc <printf+0x78>
800a2ce8:	00c12783          	lw	a5,12(sp)
800a2cec:	00060693          	mv	a3,a2
800a2cf0:	00048713          	mv	a4,s1
800a2cf4:	00778793          	addi	a5,a5,7
800a2cf8:	ff87f793          	andi	a5,a5,-8
800a2cfc:	0007a503          	lw	a0,0(a5)
800a2d00:	0047a583          	lw	a1,4(a5)
800a2d04:	00080613          	mv	a2,a6
800a2d08:	00878793          	addi	a5,a5,8
800a2d0c:	00f12623          	sw	a5,12(sp)
800a2d10:	c89ff0ef          	jal	800a2998 <putf>
800a2d14:	eb9ff06f          	j	800a2bcc <printf+0x78>
800a2d18:	00c12783          	lw	a5,12(sp)
800a2d1c:	00080593          	mv	a1,a6
800a2d20:	0007a683          	lw	a3,0(a5)
800a2d24:	00478793          	addi	a5,a5,4
800a2d28:	00f12623          	sw	a5,12(sp)
800a2d2c:	41f6d793          	srai	a5,a3,0x1f
800a2d30:	00d7c533          	xor	a0,a5,a3
800a2d34:	40f50533          	sub	a0,a0,a5
800a2d38:	01f6d693          	srli	a3,a3,0x1f
800a2d3c:	fa0ff0ef          	jal	800a24dc <putd>
800a2d40:	e8dff06f          	j	800a2bcc <printf+0x78>
800a2d44:	00c12783          	lw	a5,12(sp)
800a2d48:	00100693          	li	a3,1
800a2d4c:	f31ff06f          	j	800a2c7c <printf+0x128>
800a2d50:	00144503          	lbu	a0,1(s0)
800a2d54:	00900793          	li	a5,9
800a2d58:	00140413          	addi	s0,s0,1
800a2d5c:	fd050713          	addi	a4,a0,-48
800a2d60:	0ff77693          	zext.b	a3,a4
800a2d64:	00000493          	li	s1,0
800a2d68:	eed7e8e3          	bltu	a5,a3,800a2c58 <printf+0x104>
800a2d6c:	00900693          	li	a3,9
800a2d70:	00144503          	lbu	a0,1(s0)
800a2d74:	00249793          	slli	a5,s1,0x2
800a2d78:	009787b3          	add	a5,a5,s1
800a2d7c:	00179793          	slli	a5,a5,0x1
800a2d80:	00f704b3          	add	s1,a4,a5
800a2d84:	fd050713          	addi	a4,a0,-48
800a2d88:	0ff77793          	zext.b	a5,a4
800a2d8c:	00140413          	addi	s0,s0,1
800a2d90:	fef6f0e3          	bgeu	a3,a5,800a2d70 <printf+0x21c>
800a2d94:	ec5ff06f          	j	800a2c58 <printf+0x104>

800a2d98 <exit>:
800a2d98:	fe010113          	addi	sp,sp,-32
800a2d9c:	00112e23          	sw	ra,28(sp)
800a2da0:	00812c23          	sw	s0,24(sp)
800a2da4:	02010413          	addi	s0,sp,32
800a2da8:	fea42623          	sw	a0,-20(s0)
800a2dac:	800f17b7          	lui	a5,0x800f1
800a2db0:	47878513          	addi	a0,a5,1144 # 800f1478 <__clzsi2+0x492bc>
800a2db4:	da1ff0ef          	jal	800a2b54 <printf>
800a2db8:	fec42583          	lw	a1,-20(s0)
800a2dbc:	800f17b7          	lui	a5,0x800f1
800a2dc0:	4c478513          	addi	a0,a5,1220 # 800f14c4 <__clzsi2+0x49308>
800a2dc4:	d91ff0ef          	jal	800a2b54 <printf>
800a2dc8:	800f17b7          	lui	a5,0x800f1
800a2dcc:	4e878513          	addi	a0,a5,1256 # 800f14e8 <__clzsi2+0x4932c>
800a2dd0:	d85ff0ef          	jal	800a2b54 <printf>
800a2dd4:	00300513          	li	a0,3
800a2dd8:	d80ff0ef          	jal	800a2358 <putchar>
800a2ddc:	00000013          	nop
800a2de0:	ffdff06f          	j	800a2ddc <exit+0x44>

800a2de4 <malloc>:
800a2de4:	801528b7          	lui	a7,0x80152
800a2de8:	80152737          	lui	a4,0x80152
800a2dec:	b148a783          	lw	a5,-1260(a7) # 80151b14 <curr_top>
800a2df0:	b1072583          	lw	a1,-1264(a4) # 80151b10 <heap_end>
800a2df4:	00050813          	mv	a6,a0
800a2df8:	08b78c63          	beq	a5,a1,800a2e90 <malloc+0xac>
800a2dfc:	02b7f263          	bgeu	a5,a1,800a2e20 <malloc+0x3c>
800a2e00:	0007a703          	lw	a4,0(a5)
800a2e04:	00177693          	andi	a3,a4,1
800a2e08:	40f70633          	sub	a2,a4,a5
800a2e0c:	00069463          	bnez	a3,800a2e14 <malloc+0x30>
800a2e10:	04c86063          	bltu	a6,a2,800a2e50 <malloc+0x6c>
800a2e14:	ffe77793          	andi	a5,a4,-2
800a2e18:	feb7e4e3          	bltu	a5,a1,800a2e00 <malloc+0x1c>
800a2e1c:	b148a783          	lw	a5,-1260(a7)
800a2e20:	800f1737          	lui	a4,0x800f1
800a2e24:	6c472703          	lw	a4,1732(a4) # 800f16c4 <heap_top>
800a2e28:	02f77063          	bgeu	a4,a5,800a2e48 <malloc+0x64>
800a2e2c:	00072683          	lw	a3,0(a4)
800a2e30:	0016f613          	andi	a2,a3,1
800a2e34:	40e685b3          	sub	a1,a3,a4
800a2e38:	00061463          	bnez	a2,800a2e40 <malloc+0x5c>
800a2e3c:	08b86863          	bltu	a6,a1,800a2ecc <malloc+0xe8>
800a2e40:	ffe6f713          	andi	a4,a3,-2
800a2e44:	fef764e3          	bltu	a4,a5,800a2e2c <malloc+0x48>
800a2e48:	00000513          	li	a0,0
800a2e4c:	00008067          	ret
800a2e50:	ffe7f593          	andi	a1,a5,-2
800a2e54:	00387613          	andi	a2,a6,3
800a2e58:	00458513          	addi	a0,a1,4
800a2e5c:	06061263          	bnez	a2,800a2ec0 <malloc+0xdc>
800a2e60:	00480693          	addi	a3,a6,4
800a2e64:	00c686b3          	add	a3,a3,a2
800a2e68:	ffc6f693          	andi	a3,a3,-4
800a2e6c:	00d786b3          	add	a3,a5,a3
800a2e70:	b0d8aa23          	sw	a3,-1260(a7)
800a2e74:	00e68463          	beq	a3,a4,800a2e7c <malloc+0x98>
800a2e78:	00e6a023          	sw	a4,0(a3)
800a2e7c:	0016e693          	ori	a3,a3,1
800a2e80:	00d7a023          	sw	a3,0(a5)
800a2e84:	ffc00793          	li	a5,-4
800a2e88:	f8f58ae3          	beq	a1,a5,800a2e1c <malloc+0x38>
800a2e8c:	00008067          	ret
800a2e90:	800f17b7          	lui	a5,0x800f1
800a2e94:	800f16b7          	lui	a3,0x800f1
800a2e98:	6c47a783          	lw	a5,1732(a5) # 800f16c4 <heap_top>
800a2e9c:	6c06a583          	lw	a1,1728(a3) # 800f16c0 <heap_size>
800a2ea0:	b0f8aa23          	sw	a5,-1260(a7)
800a2ea4:	00b785b3          	add	a1,a5,a1
800a2ea8:	ff05f593          	andi	a1,a1,-16
800a2eac:	b0b72823          	sw	a1,-1264(a4)
800a2eb0:	00b7a023          	sw	a1,0(a5)
800a2eb4:	f4b7e6e3          	bltu	a5,a1,800a2e00 <malloc+0x1c>
800a2eb8:	00000513          	li	a0,0
800a2ebc:	00008067          	ret
800a2ec0:	00400693          	li	a3,4
800a2ec4:	40c68633          	sub	a2,a3,a2
800a2ec8:	f99ff06f          	j	800a2e60 <malloc+0x7c>
800a2ecc:	ffe77513          	andi	a0,a4,-2
800a2ed0:	00387613          	andi	a2,a6,3
800a2ed4:	00450513          	addi	a0,a0,4
800a2ed8:	00060663          	beqz	a2,800a2ee4 <malloc+0x100>
800a2edc:	00400793          	li	a5,4
800a2ee0:	40c78633          	sub	a2,a5,a2
800a2ee4:	00480793          	addi	a5,a6,4
800a2ee8:	00c787b3          	add	a5,a5,a2
800a2eec:	ffc7f793          	andi	a5,a5,-4
800a2ef0:	00f707b3          	add	a5,a4,a5
800a2ef4:	b0f8aa23          	sw	a5,-1260(a7)
800a2ef8:	00d78463          	beq	a5,a3,800a2f00 <malloc+0x11c>
800a2efc:	00d7a023          	sw	a3,0(a5)
800a2f00:	0017e793          	ori	a5,a5,1
800a2f04:	00f72023          	sw	a5,0(a4)
800a2f08:	00008067          	ret

800a2f0c <free>:
800a2f0c:	ffc52783          	lw	a5,-4(a0)
800a2f10:	ffe7f793          	andi	a5,a5,-2
800a2f14:	fef52e23          	sw	a5,-4(a0)
800a2f18:	0007a783          	lw	a5,0(a5)
800a2f1c:	0017f713          	andi	a4,a5,1
800a2f20:	00071a63          	bnez	a4,800a2f34 <free+0x28>
800a2f24:	ffc50713          	addi	a4,a0,-4
800a2f28:	fef52e23          	sw	a5,-4(a0)
800a2f2c:	801527b7          	lui	a5,0x80152
800a2f30:	b0e7aa23          	sw	a4,-1260(a5) # 80151b14 <curr_top>
800a2f34:	00008067          	ret

800a2f38 <calloc>:
800a2f38:	ff010113          	addi	sp,sp,-16
800a2f3c:	00912423          	sw	s1,8(sp)
800a2f40:	02b504b3          	mul	s1,a0,a1
800a2f44:	00112623          	sw	ra,12(sp)
800a2f48:	00048513          	mv	a0,s1
800a2f4c:	e99ff0ef          	jal	800a2de4 <malloc>
800a2f50:	00048613          	mv	a2,s1
800a2f54:	00000593          	li	a1,0
800a2f58:	00050493          	mv	s1,a0
800a2f5c:	4e8000ef          	jal	800a3444 <memset>
800a2f60:	00c12083          	lw	ra,12(sp)
800a2f64:	00048513          	mv	a0,s1
800a2f68:	00812483          	lw	s1,8(sp)
800a2f6c:	01010113          	addi	sp,sp,16
800a2f70:	00008067          	ret

800a2f74 <atoi>:
800a2f74:	00050793          	mv	a5,a0
800a2f78:	02000693          	li	a3,32
800a2f7c:	00900613          	li	a2,9
800a2f80:	0007c703          	lbu	a4,0(a5)
800a2f84:	00d70463          	beq	a4,a3,800a2f8c <atoi+0x18>
800a2f88:	00c71663          	bne	a4,a2,800a2f94 <atoi+0x20>
800a2f8c:	00178793          	addi	a5,a5,1
800a2f90:	ff1ff06f          	j	800a2f80 <atoi+0xc>
800a2f94:	02d00693          	li	a3,45
800a2f98:	00100813          	li	a6,1
800a2f9c:	00d71863          	bne	a4,a3,800a2fac <atoi+0x38>
800a2fa0:	0017c703          	lbu	a4,1(a5)
800a2fa4:	fff00813          	li	a6,-1
800a2fa8:	00178793          	addi	a5,a5,1
800a2fac:	fd070713          	addi	a4,a4,-48
800a2fb0:	0ff77613          	zext.b	a2,a4
800a2fb4:	00900693          	li	a3,9
800a2fb8:	00000513          	li	a0,0
800a2fbc:	04c6e263          	bltu	a3,a2,800a3000 <atoi+0x8c>
800a2fc0:	0017c603          	lbu	a2,1(a5)
800a2fc4:	00178793          	addi	a5,a5,1
800a2fc8:	02060e63          	beqz	a2,800a3004 <atoi+0x90>
800a2fcc:	00900513          	li	a0,9
800a2fd0:	0100006f          	j	800a2fe0 <atoi+0x6c>
800a2fd4:	0007c603          	lbu	a2,0(a5)
800a2fd8:	00e58733          	add	a4,a1,a4
800a2fdc:	02060463          	beqz	a2,800a3004 <atoi+0x90>
800a2fe0:	00271693          	slli	a3,a4,0x2
800a2fe4:	fd060593          	addi	a1,a2,-48
800a2fe8:	00e68733          	add	a4,a3,a4
800a2fec:	0ff5f693          	zext.b	a3,a1
800a2ff0:	00178793          	addi	a5,a5,1
800a2ff4:	00171713          	slli	a4,a4,0x1
800a2ff8:	fcd57ee3          	bgeu	a0,a3,800a2fd4 <atoi+0x60>
800a2ffc:	00000513          	li	a0,0
800a3000:	00008067          	ret
800a3004:	02e80533          	mul	a0,a6,a4
800a3008:	00008067          	ret

800a300c <abs>:
800a300c:	41f55793          	srai	a5,a0,0x1f
800a3010:	00a7c533          	xor	a0,a5,a0
800a3014:	40f50533          	sub	a0,a0,a5
800a3018:	00008067          	ret

800a301c <srand>:
800a301c:	801527b7          	lui	a5,0x80152
800a3020:	b0a7a623          	sw	a0,-1268(a5) # 80151b0c <rand_seed>
800a3024:	00008067          	ret

800a3028 <rand>:
800a3028:	801526b7          	lui	a3,0x80152
800a302c:	b0c6a783          	lw	a5,-1268(a3) # 80151b0c <rand_seed>
800a3030:	00034737          	lui	a4,0x34
800a3034:	3fd70713          	addi	a4,a4,1021 # 343fd <__stack_size+0x33bfd>
800a3038:	02e787b3          	mul	a5,a5,a4
800a303c:	0026a737          	lui	a4,0x26a
800a3040:	ec370713          	addi	a4,a4,-317 # 269ec3 <__heap_size+0x69ec3>
800a3044:	00e787b3          	add	a5,a5,a4
800a3048:	00179513          	slli	a0,a5,0x1
800a304c:	b0f6a623          	sw	a5,-1268(a3)
800a3050:	01155513          	srli	a0,a0,0x11
800a3054:	00008067          	ret

800a3058 <strcpy>:
800a3058:	00a5e7b3          	or	a5,a1,a0
800a305c:	0037f793          	andi	a5,a5,3
800a3060:	06079663          	bnez	a5,800a30cc <strcpy+0x74>
800a3064:	0005a683          	lw	a3,0(a1)
800a3068:	feff0837          	lui	a6,0xfeff0
800a306c:	eff80813          	addi	a6,a6,-257 # fefefeff <__stack_top+0x7e7ee6ff>
800a3070:	010687b3          	add	a5,a3,a6
800a3074:	fff6c713          	not	a4,a3
800a3078:	808088b7          	lui	a7,0x80808
800a307c:	00e7f7b3          	and	a5,a5,a4
800a3080:	08088893          	addi	a7,a7,128 # 80808080 <__stack_top+0x6880>
800a3084:	0117f7b3          	and	a5,a5,a7
800a3088:	04079263          	bnez	a5,800a30cc <strcpy+0x74>
800a308c:	00050793          	mv	a5,a0
800a3090:	00d7a023          	sw	a3,0(a5)
800a3094:	0045a683          	lw	a3,4(a1)
800a3098:	00458593          	addi	a1,a1,4
800a309c:	00478793          	addi	a5,a5,4
800a30a0:	01068733          	add	a4,a3,a6
800a30a4:	fff6c613          	not	a2,a3
800a30a8:	00c77733          	and	a4,a4,a2
800a30ac:	01177733          	and	a4,a4,a7
800a30b0:	fe0700e3          	beqz	a4,800a3090 <strcpy+0x38>
800a30b4:	0005c703          	lbu	a4,0(a1)
800a30b8:	00178793          	addi	a5,a5,1
800a30bc:	00158593          	addi	a1,a1,1
800a30c0:	fee78fa3          	sb	a4,-1(a5)
800a30c4:	00071663          	bnez	a4,800a30d0 <strcpy+0x78>
800a30c8:	00008067          	ret
800a30cc:	00050793          	mv	a5,a0
800a30d0:	0005c703          	lbu	a4,0(a1)
800a30d4:	00178793          	addi	a5,a5,1
800a30d8:	00158593          	addi	a1,a1,1
800a30dc:	fee78fa3          	sb	a4,-1(a5)
800a30e0:	fe0718e3          	bnez	a4,800a30d0 <strcpy+0x78>
800a30e4:	00008067          	ret

800a30e8 <strcmp>:
800a30e8:	00b567b3          	or	a5,a0,a1
800a30ec:	0037f793          	andi	a5,a5,3
800a30f0:	02079063          	bnez	a5,800a3110 <strcmp+0x28>
800a30f4:	00052783          	lw	a5,0(a0)
800a30f8:	0005a703          	lw	a4,0(a1)
800a30fc:	feff0637          	lui	a2,0xfeff0
800a3100:	808086b7          	lui	a3,0x80808
800a3104:	eff60613          	addi	a2,a2,-257 # fefefeff <__stack_top+0x7e7ee6ff>
800a3108:	08068693          	addi	a3,a3,128 # 80808080 <__stack_top+0x6880>
800a310c:	04e78063          	beq	a5,a4,800a314c <strcmp+0x64>
800a3110:	00054783          	lbu	a5,0(a0)
800a3114:	00079a63          	bnez	a5,800a3128 <strcmp+0x40>
800a3118:	0640006f          	j	800a317c <strcmp+0x94>
800a311c:	00054783          	lbu	a5,0(a0)
800a3120:	04078863          	beqz	a5,800a3170 <strcmp+0x88>
800a3124:	00068593          	mv	a1,a3
800a3128:	0005c703          	lbu	a4,0(a1)
800a312c:	00150513          	addi	a0,a0,1
800a3130:	00158693          	addi	a3,a1,1
800a3134:	fef704e3          	beq	a4,a5,800a311c <strcmp+0x34>
800a3138:	40e78533          	sub	a0,a5,a4
800a313c:	00008067          	ret
800a3140:	00052783          	lw	a5,0(a0)
800a3144:	0005a703          	lw	a4,0(a1)
800a3148:	fce794e3          	bne	a5,a4,800a3110 <strcmp+0x28>
800a314c:	00c78733          	add	a4,a5,a2
800a3150:	fff7c793          	not	a5,a5
800a3154:	00f777b3          	and	a5,a4,a5
800a3158:	00d7f7b3          	and	a5,a5,a3
800a315c:	00450513          	addi	a0,a0,4
800a3160:	00458593          	addi	a1,a1,4
800a3164:	fc078ee3          	beqz	a5,800a3140 <strcmp+0x58>
800a3168:	00000513          	li	a0,0
800a316c:	00008067          	ret
800a3170:	0015c703          	lbu	a4,1(a1)
800a3174:	40e78533          	sub	a0,a5,a4
800a3178:	00008067          	ret
800a317c:	0005c703          	lbu	a4,0(a1)
800a3180:	fb9ff06f          	j	800a3138 <strcmp+0x50>

800a3184 <strncpy>:
800a3184:	00a5e7b3          	or	a5,a1,a0
800a3188:	0037f793          	andi	a5,a5,3
800a318c:	00050713          	mv	a4,a0
800a3190:	06079463          	bnez	a5,800a31f8 <strncpy+0x74>
800a3194:	0005a683          	lw	a3,0(a1)
800a3198:	feff08b7          	lui	a7,0xfeff0
800a319c:	eff88893          	addi	a7,a7,-257 # fefefeff <__stack_top+0x7e7ee6ff>
800a31a0:	011687b3          	add	a5,a3,a7
800a31a4:	fff6c813          	not	a6,a3
800a31a8:	80808337          	lui	t1,0x80808
800a31ac:	0107f7b3          	and	a5,a5,a6
800a31b0:	08030313          	addi	t1,t1,128 # 80808080 <__stack_top+0x6880>
800a31b4:	0067f7b3          	and	a5,a5,t1
800a31b8:	04079063          	bnez	a5,800a31f8 <strncpy+0x74>
800a31bc:	00400793          	li	a5,4
800a31c0:	02c7fc63          	bgeu	a5,a2,800a31f8 <strncpy+0x74>
800a31c4:	00400e13          	li	t3,4
800a31c8:	0080006f          	j	800a31d0 <strncpy+0x4c>
800a31cc:	02ce7663          	bgeu	t3,a2,800a31f8 <strncpy+0x74>
800a31d0:	00d72023          	sw	a3,0(a4)
800a31d4:	0045a683          	lw	a3,4(a1)
800a31d8:	00470713          	addi	a4,a4,4
800a31dc:	00458593          	addi	a1,a1,4
800a31e0:	011687b3          	add	a5,a3,a7
800a31e4:	fff6c813          	not	a6,a3
800a31e8:	0107f7b3          	and	a5,a5,a6
800a31ec:	0067f7b3          	and	a5,a5,t1
800a31f0:	ffc60613          	addi	a2,a2,-4
800a31f4:	fc078ce3          	beqz	a5,800a31cc <strncpy+0x48>
800a31f8:	00160813          	addi	a6,a2,1
800a31fc:	00058793          	mv	a5,a1
800a3200:	00b80833          	add	a6,a6,a1
800a3204:	0080006f          	j	800a320c <strncpy+0x88>
800a3208:	03078663          	beq	a5,a6,800a3234 <strncpy+0xb0>
800a320c:	0007c683          	lbu	a3,0(a5)
800a3210:	00078893          	mv	a7,a5
800a3214:	00170713          	addi	a4,a4,1
800a3218:	fed70fa3          	sb	a3,-1(a4)
800a321c:	00178793          	addi	a5,a5,1
800a3220:	fe0694e3          	bnez	a3,800a3208 <strncpy+0x84>
800a3224:	00b60633          	add	a2,a2,a1
800a3228:	00160613          	addi	a2,a2,1
800a322c:	01160463          	beq	a2,a7,800a3234 <strncpy+0xb0>
800a3230:	00008067          	ret
800a3234:	00070023          	sb	zero,0(a4)
800a3238:	00008067          	ret

800a323c <strncmp>:
800a323c:	00b567b3          	or	a5,a0,a1
800a3240:	0037f793          	andi	a5,a5,3
800a3244:	06079463          	bnez	a5,800a32ac <strncmp+0x70>
800a3248:	00052783          	lw	a5,0(a0)
800a324c:	0005a703          	lw	a4,0(a1)
800a3250:	04e79e63          	bne	a5,a4,800a32ac <strncmp+0x70>
800a3254:	00400713          	li	a4,4
800a3258:	04c77a63          	bgeu	a4,a2,800a32ac <strncmp+0x70>
800a325c:	feff0837          	lui	a6,0xfeff0
800a3260:	808086b7          	lui	a3,0x80808
800a3264:	eff80813          	addi	a6,a6,-257 # fefefeff <__stack_top+0x7e7ee6ff>
800a3268:	08068693          	addi	a3,a3,128 # 80808080 <__stack_top+0x6880>
800a326c:	00400893          	li	a7,4
800a3270:	0180006f          	j	800a3288 <strncmp+0x4c>
800a3274:	00052783          	lw	a5,0(a0)
800a3278:	0005a703          	lw	a4,0(a1)
800a327c:	ffc60613          	addi	a2,a2,-4
800a3280:	02e79663          	bne	a5,a4,800a32ac <strncmp+0x70>
800a3284:	02c8f463          	bgeu	a7,a2,800a32ac <strncmp+0x70>
800a3288:	01078733          	add	a4,a5,a6
800a328c:	fff7c793          	not	a5,a5
800a3290:	00f777b3          	and	a5,a4,a5
800a3294:	00d7f7b3          	and	a5,a5,a3
800a3298:	00450513          	addi	a0,a0,4
800a329c:	00458593          	addi	a1,a1,4
800a32a0:	fc078ae3          	beqz	a5,800a3274 <strncmp+0x38>
800a32a4:	00000513          	li	a0,0
800a32a8:	00008067          	ret
800a32ac:	fff60613          	addi	a2,a2,-1
800a32b0:	00050793          	mv	a5,a0
800a32b4:	00c50833          	add	a6,a0,a2
800a32b8:	00061e63          	bnez	a2,800a32d4 <strncmp+0x98>
800a32bc:	0400006f          	j	800a32fc <strncmp+0xc0>
800a32c0:	00158613          	addi	a2,a1,1
800a32c4:	02d51063          	bne	a0,a3,800a32e4 <strncmp+0xa8>
800a32c8:	03070263          	beq	a4,a6,800a32ec <strncmp+0xb0>
800a32cc:	00060593          	mv	a1,a2
800a32d0:	00070793          	mv	a5,a4
800a32d4:	0007c503          	lbu	a0,0(a5)
800a32d8:	0005c683          	lbu	a3,0(a1)
800a32dc:	00178713          	addi	a4,a5,1
800a32e0:	fe0510e3          	bnez	a0,800a32c0 <strncmp+0x84>
800a32e4:	40d50533          	sub	a0,a0,a3
800a32e8:	00008067          	ret
800a32ec:	0017c503          	lbu	a0,1(a5)
800a32f0:	0015c683          	lbu	a3,1(a1)
800a32f4:	40d50533          	sub	a0,a0,a3
800a32f8:	00008067          	ret
800a32fc:	00054503          	lbu	a0,0(a0)
800a3300:	0005c683          	lbu	a3,0(a1)
800a3304:	fe1ff06f          	j	800a32e4 <strncmp+0xa8>

800a3308 <memcpy>:
800a3308:	00a5e7b3          	or	a5,a1,a0
800a330c:	0037f793          	andi	a5,a5,3
800a3310:	04079c63          	bnez	a5,800a3368 <memcpy+0x60>
800a3314:	00400793          	li	a5,4
800a3318:	04c7f863          	bgeu	a5,a2,800a3368 <memcpy+0x60>
800a331c:	ffb60893          	addi	a7,a2,-5
800a3320:	0028d893          	srli	a7,a7,0x2
800a3324:	00188313          	addi	t1,a7,1
800a3328:	00231313          	slli	t1,t1,0x2
800a332c:	006507b3          	add	a5,a0,t1
800a3330:	00058693          	mv	a3,a1
800a3334:	00050713          	mv	a4,a0
800a3338:	0006a803          	lw	a6,0(a3)
800a333c:	00470713          	addi	a4,a4,4
800a3340:	00468693          	addi	a3,a3,4
800a3344:	ff072e23          	sw	a6,-4(a4)
800a3348:	fef718e3          	bne	a4,a5,800a3338 <memcpy+0x30>
800a334c:	ffc60613          	addi	a2,a2,-4
800a3350:	00289893          	slli	a7,a7,0x2
800a3354:	41160633          	sub	a2,a2,a7
800a3358:	006585b3          	add	a1,a1,t1
800a335c:	00c786b3          	add	a3,a5,a2
800a3360:	00061a63          	bnez	a2,800a3374 <memcpy+0x6c>
800a3364:	00008067          	ret
800a3368:	00050793          	mv	a5,a0
800a336c:	00c786b3          	add	a3,a5,a2
800a3370:	fe060ae3          	beqz	a2,800a3364 <memcpy+0x5c>
800a3374:	0005c703          	lbu	a4,0(a1)
800a3378:	00178793          	addi	a5,a5,1
800a337c:	00158593          	addi	a1,a1,1
800a3380:	fee78fa3          	sb	a4,-1(a5)
800a3384:	fed798e3          	bne	a5,a3,800a3374 <memcpy+0x6c>
800a3388:	00008067          	ret

800a338c <memmove>:
800a338c:	fff60693          	addi	a3,a2,-1
800a3390:	02b56a63          	bltu	a0,a1,800a33c4 <memmove+0x38>
800a3394:	00c587b3          	add	a5,a1,a2
800a3398:	02a7e663          	bltu	a5,a0,800a33c4 <memmove+0x38>
800a339c:	00d507b3          	add	a5,a0,a3
800a33a0:	00d585b3          	add	a1,a1,a3
800a33a4:	fff50693          	addi	a3,a0,-1
800a33a8:	08060a63          	beqz	a2,800a343c <memmove+0xb0>
800a33ac:	0005c703          	lbu	a4,0(a1)
800a33b0:	fff78793          	addi	a5,a5,-1
800a33b4:	fff58593          	addi	a1,a1,-1
800a33b8:	00e780a3          	sb	a4,1(a5)
800a33bc:	fed798e3          	bne	a5,a3,800a33ac <memmove+0x20>
800a33c0:	00008067          	ret
800a33c4:	00b567b3          	or	a5,a0,a1
800a33c8:	0037f793          	andi	a5,a5,3
800a33cc:	04079663          	bnez	a5,800a3418 <memmove+0x8c>
800a33d0:	00400793          	li	a5,4
800a33d4:	04c7f263          	bgeu	a5,a2,800a3418 <memmove+0x8c>
800a33d8:	ffb60893          	addi	a7,a2,-5
800a33dc:	0028d893          	srli	a7,a7,0x2
800a33e0:	00188793          	addi	a5,a7,1
800a33e4:	00279793          	slli	a5,a5,0x2
800a33e8:	00f58833          	add	a6,a1,a5
800a33ec:	00050713          	mv	a4,a0
800a33f0:	0005a683          	lw	a3,0(a1)
800a33f4:	00458593          	addi	a1,a1,4
800a33f8:	00470713          	addi	a4,a4,4
800a33fc:	fed72e23          	sw	a3,-4(a4)
800a3400:	ff0598e3          	bne	a1,a6,800a33f0 <memmove+0x64>
800a3404:	00289893          	slli	a7,a7,0x2
800a3408:	41160633          	sub	a2,a2,a7
800a340c:	00f507b3          	add	a5,a0,a5
800a3410:	ffb60693          	addi	a3,a2,-5
800a3414:	00c0006f          	j	800a3420 <memmove+0x94>
800a3418:	00050793          	mv	a5,a0
800a341c:	02060263          	beqz	a2,800a3440 <memmove+0xb4>
800a3420:	00168693          	addi	a3,a3,1
800a3424:	00d586b3          	add	a3,a1,a3
800a3428:	0005c703          	lbu	a4,0(a1)
800a342c:	00158593          	addi	a1,a1,1
800a3430:	00178793          	addi	a5,a5,1
800a3434:	fee78fa3          	sb	a4,-1(a5)
800a3438:	fed598e3          	bne	a1,a3,800a3428 <memmove+0x9c>
800a343c:	00008067          	ret
800a3440:	00008067          	ret

800a3444 <memset>:
800a3444:	0ff5f593          	zext.b	a1,a1
800a3448:	00c50733          	add	a4,a0,a2
800a344c:	00050793          	mv	a5,a0
800a3450:	00060863          	beqz	a2,800a3460 <memset+0x1c>
800a3454:	00178793          	addi	a5,a5,1
800a3458:	feb78fa3          	sb	a1,-1(a5)
800a345c:	fef71ce3          	bne	a4,a5,800a3454 <memset+0x10>
800a3460:	00008067          	ret

800a3464 <strlen>:
800a3464:	00054783          	lbu	a5,0(a0)
800a3468:	00050713          	mv	a4,a0
800a346c:	00000513          	li	a0,0
800a3470:	00078c63          	beqz	a5,800a3488 <strlen+0x24>
800a3474:	00150513          	addi	a0,a0,1
800a3478:	00a707b3          	add	a5,a4,a0
800a347c:	0007c783          	lbu	a5,0(a5)
800a3480:	fe079ae3          	bnez	a5,800a3474 <strlen+0x10>
800a3484:	00008067          	ret
800a3488:	00008067          	ret

800a348c <strcat>:
800a348c:	00054783          	lbu	a5,0(a0)
800a3490:	02078c63          	beqz	a5,800a34c8 <strcat+0x3c>
800a3494:	00050793          	mv	a5,a0
800a3498:	0017c703          	lbu	a4,1(a5)
800a349c:	00178793          	addi	a5,a5,1
800a34a0:	fe071ce3          	bnez	a4,800a3498 <strcat+0xc>
800a34a4:	0005c703          	lbu	a4,0(a1)
800a34a8:	00070c63          	beqz	a4,800a34c0 <strcat+0x34>
800a34ac:	00e78023          	sb	a4,0(a5)
800a34b0:	0015c703          	lbu	a4,1(a1)
800a34b4:	00158593          	addi	a1,a1,1
800a34b8:	00178793          	addi	a5,a5,1
800a34bc:	fe0718e3          	bnez	a4,800a34ac <strcat+0x20>
800a34c0:	00078023          	sb	zero,0(a5)
800a34c4:	00008067          	ret
800a34c8:	00050793          	mv	a5,a0
800a34cc:	fd9ff06f          	j	800a34a4 <strcat+0x18>

800a34d0 <strncat>:
800a34d0:	00054783          	lbu	a5,0(a0)
800a34d4:	04078463          	beqz	a5,800a351c <strncat+0x4c>
800a34d8:	00050793          	mv	a5,a0
800a34dc:	0017c703          	lbu	a4,1(a5)
800a34e0:	00178793          	addi	a5,a5,1
800a34e4:	fe071ce3          	bnez	a4,800a34dc <strncat+0xc>
800a34e8:	0005c703          	lbu	a4,0(a1)
800a34ec:	02070463          	beqz	a4,800a3514 <strncat+0x44>
800a34f0:	02060263          	beqz	a2,800a3514 <strncat+0x44>
800a34f4:	00c58633          	add	a2,a1,a2
800a34f8:	0080006f          	j	800a3500 <strncat+0x30>
800a34fc:	00b60c63          	beq	a2,a1,800a3514 <strncat+0x44>
800a3500:	00e78023          	sb	a4,0(a5)
800a3504:	0015c703          	lbu	a4,1(a1)
800a3508:	00158593          	addi	a1,a1,1
800a350c:	00178793          	addi	a5,a5,1
800a3510:	fe0716e3          	bnez	a4,800a34fc <strncat+0x2c>
800a3514:	00078023          	sb	zero,0(a5)
800a3518:	00008067          	ret
800a351c:	00050793          	mv	a5,a0
800a3520:	fc9ff06f          	j	800a34e8 <strncat+0x18>

800a3524 <clock>:
800a3524:	ff010113          	addi	sp,sp,-16
800a3528:	00112623          	sw	ra,12(sp)
800a352c:	b0002573          	csrr	a0,mcycle
800a3530:	b8002773          	csrr	a4,mcycleh
800a3534:	000f47b7          	lui	a5,0xf4
800a3538:	24078793          	addi	a5,a5,576 # f4240 <__stack_size+0xf3a40>
800a353c:	02f535b3          	mulhu	a1,a0,a5
800a3540:	027bd637          	lui	a2,0x27bd
800a3544:	86b60613          	addi	a2,a2,-1941 # 27bc86b <__heap_size+0x25bc86b>
800a3548:	00000693          	li	a3,0
800a354c:	02f70733          	mul	a4,a4,a5
800a3550:	02f50533          	mul	a0,a0,a5
800a3554:	00b705b3          	add	a1,a4,a1
800a3558:	108010ef          	jal	800a4660 <__divdi3>
800a355c:	00c12083          	lw	ra,12(sp)
800a3560:	01010113          	addi	sp,sp,16
800a3564:	00008067          	ret

800a3568 <inbyte>:
800a3568:	c0000737          	lui	a4,0xc0000
800a356c:	00870713          	addi	a4,a4,8 # c0000008 <__stack_top+0x3f7fe808>
800a3570:	00072783          	lw	a5,0(a4)
800a3574:	0017f793          	andi	a5,a5,1
800a3578:	fe078ce3          	beqz	a5,800a3570 <inbyte+0x8>
800a357c:	c00007b7          	lui	a5,0xc0000
800a3580:	0007a503          	lw	a0,0(a5) # c0000000 <__stack_top+0x3f7fe800>
800a3584:	0ff57513          	zext.b	a0,a0
800a3588:	00008067          	ret

800a358c <outbyte>:
800a358c:	00a00793          	li	a5,10
800a3590:	02f50263          	beq	a0,a5,800a35b4 <outbyte+0x28>
800a3594:	c0000737          	lui	a4,0xc0000
800a3598:	00870713          	addi	a4,a4,8 # c0000008 <__stack_top+0x3f7fe808>
800a359c:	00072783          	lw	a5,0(a4)
800a35a0:	0087f793          	andi	a5,a5,8
800a35a4:	fe079ce3          	bnez	a5,800a359c <outbyte+0x10>
800a35a8:	c00007b7          	lui	a5,0xc0000
800a35ac:	00a7a223          	sw	a0,4(a5) # c0000004 <__stack_top+0x3f7fe804>
800a35b0:	00008067          	ret
800a35b4:	c0000737          	lui	a4,0xc0000
800a35b8:	00870713          	addi	a4,a4,8 # c0000008 <__stack_top+0x3f7fe808>
800a35bc:	00072783          	lw	a5,0(a4)
800a35c0:	0087f793          	andi	a5,a5,8
800a35c4:	fe079ce3          	bnez	a5,800a35bc <outbyte+0x30>
800a35c8:	c00007b7          	lui	a5,0xc0000
800a35cc:	00d00713          	li	a4,13
800a35d0:	00e7a223          	sw	a4,4(a5) # c0000004 <__stack_top+0x3f7fe804>
800a35d4:	fc1ff06f          	j	800a3594 <outbyte+0x8>

800a35d8 <copy_file>:
800a35d8:	fc010113          	addi	sp,sp,-64
800a35dc:	03612023          	sw	s6,32(sp)
800a35e0:	01812c23          	sw	s8,24(sp)
800a35e4:	01a12823          	sw	s10,16(sp)
800a35e8:	02112e23          	sw	ra,60(sp)
800a35ec:	02812c23          	sw	s0,56(sp)
800a35f0:	03212823          	sw	s2,48(sp)
800a35f4:	03312623          	sw	s3,44(sp)
800a35f8:	03412423          	sw	s4,40(sp)
800a35fc:	0255c703          	lbu	a4,37(a1)
800a3600:	0245c803          	lbu	a6,36(a1)
800a3604:	0265c783          	lbu	a5,38(a1)
800a3608:	0275c903          	lbu	s2,39(a1)
800a360c:	00871713          	slli	a4,a4,0x8
800a3610:	00058d13          	mv	s10,a1
800a3614:	01076733          	or	a4,a4,a6
800a3618:	0105c583          	lbu	a1,16(a1)
800a361c:	01079793          	slli	a5,a5,0x10
800a3620:	00e7e7b3          	or	a5,a5,a4
800a3624:	01891913          	slli	s2,s2,0x18
800a3628:	00f96933          	or	s2,s2,a5
800a362c:	02b90933          	mul	s2,s2,a1
800a3630:	00fd4a03          	lbu	s4,15(s10)
800a3634:	00ed4783          	lbu	a5,14(s10)
800a3638:	00cd4703          	lbu	a4,12(s10)
800a363c:	008a1a13          	slli	s4,s4,0x8
800a3640:	00fa6a33          	or	s4,s4,a5
800a3644:	00175713          	srli	a4,a4,0x1
800a3648:	0156c783          	lbu	a5,21(a3)
800a364c:	0146c583          	lbu	a1,20(a3)
800a3650:	01b6c403          	lbu	s0,27(a3)
800a3654:	01490933          	add	s2,s2,s4
800a3658:	02e90933          	mul	s2,s2,a4
800a365c:	00068c13          	mv	s8,a3
800a3660:	01a6c683          	lbu	a3,26(a3)
800a3664:	00879793          	slli	a5,a5,0x8
800a3668:	00dd4983          	lbu	s3,13(s10)
800a366c:	00b7e7b3          	or	a5,a5,a1
800a3670:	00841413          	slli	s0,s0,0x8
800a3674:	01079793          	slli	a5,a5,0x10
800a3678:	00d46433          	or	s0,s0,a3
800a367c:	10000b37          	lui	s6,0x10000
800a3680:	02ea0a33          	mul	s4,s4,a4
800a3684:	00f40433          	add	s0,s0,a5
800a3688:	ff7b0b13          	addi	s6,s6,-9 # ffffff7 <__heap_size+0xfdffff7>
800a368c:	00c90933          	add	s2,s2,a2
800a3690:	02e989b3          	mul	s3,s3,a4
800a3694:	00ca0a33          	add	s4,s4,a2
800a3698:	0e8b6a63          	bltu	s6,s0,800a378c <copy_file+0x1b4>
800a369c:	02912a23          	sw	s1,52(sp)
800a36a0:	03512223          	sw	s5,36(sp)
800a36a4:	01712e23          	sw	s7,28(sp)
800a36a8:	01b12623          	sw	s11,12(sp)
800a36ac:	01912a23          	sw	s9,20(sp)
800a36b0:	00050493          	mv	s1,a0
800a36b4:	fff00d93          	li	s11,-1
800a36b8:	fff00b93          	li	s7,-1
800a36bc:	80151ab7          	lui	s5,0x80151
800a36c0:	0580006f          	j	800a3718 <copy_file+0x140>
800a36c4:	00cd4783          	lbu	a5,12(s10)
800a36c8:	00bd4683          	lbu	a3,11(s10)
800a36cc:	00dd4703          	lbu	a4,13(s10)
800a36d0:	00879793          	slli	a5,a5,0x8
800a36d4:	00d7e7b3          	or	a5,a5,a3
800a36d8:	02f707b3          	mul	a5,a4,a5
800a36dc:	00945c93          	srli	s9,s0,0x9
800a36e0:	00bc9593          	slli	a1,s9,0xb
800a36e4:	0095d593          	srli	a1,a1,0x9
800a36e8:	014585b3          	add	a1,a1,s4
800a36ec:	1ff47413          	andi	s0,s0,511
800a36f0:	00f484b3          	add	s1,s1,a5
800a36f4:	017d8463          	beq	s11,s7,800a36fc <copy_file+0x124>
800a36f8:	019d8463          	beq	s11,s9,800a3700 <copy_file+0x128>
800a36fc:	1f9000ef          	jal	800a40f4 <sd_copy>
800a3700:	00241413          	slli	s0,s0,0x2
800a3704:	260a8793          	addi	a5,s5,608 # 80151260 <fat>
800a3708:	008787b3          	add	a5,a5,s0
800a370c:	0007a403          	lw	s0,0(a5)
800a3710:	000c8d93          	mv	s11,s9
800a3714:	068b6263          	bltu	s6,s0,800a3778 <copy_file+0x1a0>
800a3718:	ffe40593          	addi	a1,s0,-2
800a371c:	033585b3          	mul	a1,a1,s3
800a3720:	00098613          	mv	a2,s3
800a3724:	00048513          	mv	a0,s1
800a3728:	012585b3          	add	a1,a1,s2
800a372c:	1c9000ef          	jal	800a40f4 <sd_copy>
800a3730:	00050c93          	mv	s9,a0
800a3734:	00400613          	li	a2,4
800a3738:	260a8513          	addi	a0,s5,608
800a373c:	f80c84e3          	beqz	s9,800a36c4 <copy_file+0xec>
800a3740:	800f1537          	lui	a0,0x800f1
800a3744:	26c50513          	addi	a0,a0,620 # 800f126c <__clzsi2+0x490b0>
800a3748:	c0cff0ef          	jal	800a2b54 <printf>
800a374c:	800f1537          	lui	a0,0x800f1
800a3750:	000c8593          	mv	a1,s9
800a3754:	28450513          	addi	a0,a0,644 # 800f1284 <__clzsi2+0x490c8>
800a3758:	bfcff0ef          	jal	800a2b54 <printf>
800a375c:	00000513          	li	a0,0
800a3760:	03412483          	lw	s1,52(sp)
800a3764:	02412a83          	lw	s5,36(sp)
800a3768:	01c12b83          	lw	s7,28(sp)
800a376c:	01412c83          	lw	s9,20(sp)
800a3770:	00c12d83          	lw	s11,12(sp)
800a3774:	0400006f          	j	800a37b4 <copy_file+0x1dc>
800a3778:	03412483          	lw	s1,52(sp)
800a377c:	02412a83          	lw	s5,36(sp)
800a3780:	01c12b83          	lw	s7,28(sp)
800a3784:	01412c83          	lw	s9,20(sp)
800a3788:	00c12d83          	lw	s11,12(sp)
800a378c:	01dc4703          	lbu	a4,29(s8)
800a3790:	01cc4683          	lbu	a3,28(s8)
800a3794:	01ec4783          	lbu	a5,30(s8)
800a3798:	01fc4503          	lbu	a0,31(s8)
800a379c:	00871713          	slli	a4,a4,0x8
800a37a0:	00d76733          	or	a4,a4,a3
800a37a4:	01079793          	slli	a5,a5,0x10
800a37a8:	00e7e7b3          	or	a5,a5,a4
800a37ac:	01851513          	slli	a0,a0,0x18
800a37b0:	00f56533          	or	a0,a0,a5
800a37b4:	03c12083          	lw	ra,60(sp)
800a37b8:	03812403          	lw	s0,56(sp)
800a37bc:	03012903          	lw	s2,48(sp)
800a37c0:	02c12983          	lw	s3,44(sp)
800a37c4:	02812a03          	lw	s4,40(sp)
800a37c8:	02012b03          	lw	s6,32(sp)
800a37cc:	01812c03          	lw	s8,24(sp)
800a37d0:	01012d03          	lw	s10,16(sp)
800a37d4:	04010113          	addi	sp,sp,64
800a37d8:	00008067          	ret

800a37dc <get_next_cluster>:
800a37dc:	0005a783          	lw	a5,0(a1)
800a37e0:	fe010113          	addi	sp,sp,-32
800a37e4:	00812c23          	sw	s0,24(sp)
800a37e8:	01212823          	sw	s2,16(sp)
800a37ec:	01312623          	sw	s3,12(sp)
800a37f0:	00112e23          	sw	ra,28(sp)
800a37f4:	00912a23          	sw	s1,20(sp)
800a37f8:	fff00713          	li	a4,-1
800a37fc:	00058913          	mv	s2,a1
800a3800:	00955993          	srli	s3,a0,0x9
800a3804:	00060593          	mv	a1,a2
800a3808:	1ff57413          	andi	s0,a0,511
800a380c:	00e78663          	beq	a5,a4,800a3818 <get_next_cluster+0x3c>
800a3810:	801514b7          	lui	s1,0x80151
800a3814:	03378263          	beq	a5,s3,800a3838 <get_next_cluster+0x5c>
800a3818:	00b99793          	slli	a5,s3,0xb
800a381c:	0097d793          	srli	a5,a5,0x9
800a3820:	801514b7          	lui	s1,0x80151
800a3824:	00400613          	li	a2,4
800a3828:	00b785b3          	add	a1,a5,a1
800a382c:	26048513          	addi	a0,s1,608 # 80151260 <fat>
800a3830:	0c5000ef          	jal	800a40f4 <sd_copy>
800a3834:	01392023          	sw	s3,0(s2)
800a3838:	00241513          	slli	a0,s0,0x2
800a383c:	01c12083          	lw	ra,28(sp)
800a3840:	01812403          	lw	s0,24(sp)
800a3844:	26048493          	addi	s1,s1,608
800a3848:	00a484b3          	add	s1,s1,a0
800a384c:	0004a503          	lw	a0,0(s1)
800a3850:	01012903          	lw	s2,16(sp)
800a3854:	01412483          	lw	s1,20(sp)
800a3858:	00c12983          	lw	s3,12(sp)
800a385c:	02010113          	addi	sp,sp,32
800a3860:	00008067          	ret

800a3864 <get_partition_first_lba>:
800a3864:	fe010113          	addi	sp,sp,-32
800a3868:	00812c23          	sw	s0,24(sp)
800a386c:	00112e23          	sw	ra,28(sp)
800a3870:	00050413          	mv	s0,a0
800a3874:	72c000ef          	jal	800a3fa0 <init_sd>
800a3878:	0c051063          	bnez	a0,800a3938 <get_partition_first_lba+0xd4>
800a387c:	00912a23          	sw	s1,20(sp)
800a3880:	801514b7          	lui	s1,0x80151
800a3884:	00100613          	li	a2,1
800a3888:	00000593          	li	a1,0
800a388c:	06048513          	addi	a0,s1,96 # 80151060 <lba_buf>
800a3890:	01212823          	sw	s2,16(sp)
800a3894:	06048913          	addi	s2,s1,96
800a3898:	05d000ef          	jal	800a40f4 <sd_copy>
800a389c:	10051463          	bnez	a0,800a39a4 <get_partition_first_lba+0x140>
800a38a0:	01b40793          	addi	a5,s0,27
800a38a4:	00479793          	slli	a5,a5,0x4
800a38a8:	00f907b3          	add	a5,s2,a5
800a38ac:	0127c683          	lbu	a3,18(a5)
800a38b0:	0ee00713          	li	a4,238
800a38b4:	02e68263          	beq	a3,a4,800a38d8 <get_partition_first_lba+0x74>
800a38b8:	00300713          	li	a4,3
800a38bc:	10876263          	bltu	a4,s0,800a39c0 <get_partition_first_lba+0x15c>
800a38c0:	0187d503          	lhu	a0,24(a5)
800a38c4:	0167d783          	lhu	a5,22(a5)
800a38c8:	00000593          	li	a1,0
800a38cc:	01051513          	slli	a0,a0,0x10
800a38d0:	00f56533          	or	a0,a0,a5
800a38d4:	08051663          	bnez	a0,800a3960 <get_partition_first_lba+0xfc>
800a38d8:	00100613          	li	a2,1
800a38dc:	00100593          	li	a1,1
800a38e0:	06048513          	addi	a0,s1,96
800a38e4:	01312623          	sw	s3,12(sp)
800a38e8:	00d000ef          	jal	800a40f4 <sd_copy>
800a38ec:	00050993          	mv	s3,a0
800a38f0:	08051463          	bnez	a0,800a3978 <get_partition_first_lba+0x114>
800a38f4:	04892583          	lw	a1,72(s2)
800a38f8:	06048513          	addi	a0,s1,96
800a38fc:	00100613          	li	a2,1
800a3900:	7f4000ef          	jal	800a40f4 <sd_copy>
800a3904:	00050493          	mv	s1,a0
800a3908:	0c051863          	bnez	a0,800a39d8 <get_partition_first_lba+0x174>
800a390c:	00741413          	slli	s0,s0,0x7
800a3910:	00890933          	add	s2,s2,s0
800a3914:	01c12083          	lw	ra,28(sp)
800a3918:	01812403          	lw	s0,24(sp)
800a391c:	02092503          	lw	a0,32(s2)
800a3920:	02492583          	lw	a1,36(s2)
800a3924:	01412483          	lw	s1,20(sp)
800a3928:	01012903          	lw	s2,16(sp)
800a392c:	00c12983          	lw	s3,12(sp)
800a3930:	02010113          	addi	sp,sp,32
800a3934:	00008067          	ret
800a3938:	00050593          	mv	a1,a0
800a393c:	800f1537          	lui	a0,0x800f1
800a3940:	2a050513          	addi	a0,a0,672 # 800f12a0 <__clzsi2+0x490e4>
800a3944:	a10ff0ef          	jal	800a2b54 <printf>
800a3948:	01c12083          	lw	ra,28(sp)
800a394c:	01812403          	lw	s0,24(sp)
800a3950:	00000513          	li	a0,0
800a3954:	00000593          	li	a1,0
800a3958:	02010113          	addi	sp,sp,32
800a395c:	00008067          	ret
800a3960:	01c12083          	lw	ra,28(sp)
800a3964:	01812403          	lw	s0,24(sp)
800a3968:	01412483          	lw	s1,20(sp)
800a396c:	01012903          	lw	s2,16(sp)
800a3970:	02010113          	addi	sp,sp,32
800a3974:	00008067          	ret
800a3978:	800f1537          	lui	a0,0x800f1
800a397c:	32050513          	addi	a0,a0,800 # 800f1320 <__clzsi2+0x49164>
800a3980:	9d4ff0ef          	jal	800a2b54 <printf>
800a3984:	00098593          	mv	a1,s3
800a3988:	800f1537          	lui	a0,0x800f1
800a398c:	28450513          	addi	a0,a0,644 # 800f1284 <__clzsi2+0x490c8>
800a3990:	9c4ff0ef          	jal	800a2b54 <printf>
800a3994:	01412483          	lw	s1,20(sp)
800a3998:	01012903          	lw	s2,16(sp)
800a399c:	00c12983          	lw	s3,12(sp)
800a39a0:	fa9ff06f          	j	800a3948 <get_partition_first_lba+0xe4>
800a39a4:	00050593          	mv	a1,a0
800a39a8:	800f1537          	lui	a0,0x800f1
800a39ac:	2d050513          	addi	a0,a0,720 # 800f12d0 <__clzsi2+0x49114>
800a39b0:	9a4ff0ef          	jal	800a2b54 <printf>
800a39b4:	01412483          	lw	s1,20(sp)
800a39b8:	01012903          	lw	s2,16(sp)
800a39bc:	f8dff06f          	j	800a3948 <get_partition_first_lba+0xe4>
800a39c0:	800f1537          	lui	a0,0x800f1
800a39c4:	2f850513          	addi	a0,a0,760 # 800f12f8 <__clzsi2+0x4913c>
800a39c8:	98cff0ef          	jal	800a2b54 <printf>
800a39cc:	01412483          	lw	s1,20(sp)
800a39d0:	01012903          	lw	s2,16(sp)
800a39d4:	f75ff06f          	j	800a3948 <get_partition_first_lba+0xe4>
800a39d8:	800f1537          	lui	a0,0x800f1
800a39dc:	32050513          	addi	a0,a0,800 # 800f1320 <__clzsi2+0x49164>
800a39e0:	974ff0ef          	jal	800a2b54 <printf>
800a39e4:	00048593          	mv	a1,s1
800a39e8:	fa1ff06f          	j	800a3988 <get_partition_first_lba+0x124>

800a39ec <long2short>:
800a39ec:	00058793          	mv	a5,a1
800a39f0:	00b58693          	addi	a3,a1,11
800a39f4:	02000713          	li	a4,32
800a39f8:	00e78023          	sb	a4,0(a5)
800a39fc:	00178793          	addi	a5,a5,1
800a3a00:	fed79ce3          	bne	a5,a3,800a39f8 <long2short+0xc>
800a3a04:	00054783          	lbu	a5,0(a0)
800a3a08:	02e00613          	li	a2,46
800a3a0c:	00050713          	mv	a4,a0
800a3a10:	02e00693          	li	a3,46
800a3a14:	00c78a63          	beq	a5,a2,800a3a28 <long2short+0x3c>
800a3a18:	00078c63          	beqz	a5,800a3a30 <long2short+0x44>
800a3a1c:	00174783          	lbu	a5,1(a4)
800a3a20:	00170713          	addi	a4,a4,1
800a3a24:	fed79ae3          	bne	a5,a3,800a3a18 <long2short+0x2c>
800a3a28:	00170713          	addi	a4,a4,1
800a3a2c:	00100793          	li	a5,1
800a3a30:	40a70eb3          	sub	t4,a4,a0
800a3a34:	40fe8eb3          	sub	t4,t4,a5
800a3a38:	00800793          	li	a5,8
800a3a3c:	000e8313          	mv	t1,t4
800a3a40:	01d7d463          	bge	a5,t4,800a3a48 <long2short+0x5c>
800a3a44:	00800313          	li	t1,8
800a3a48:	09d05a63          	blez	t4,800a3adc <long2short+0xf0>
800a3a4c:	00000793          	li	a5,0
800a3a50:	01900e13          	li	t3,25
800a3a54:	00f506b3          	add	a3,a0,a5
800a3a58:	0006c683          	lbu	a3,0(a3)
800a3a5c:	00f58833          	add	a6,a1,a5
800a3a60:	00178793          	addi	a5,a5,1
800a3a64:	f9f68613          	addi	a2,a3,-97
800a3a68:	0ff67613          	zext.b	a2,a2
800a3a6c:	fe068893          	addi	a7,a3,-32
800a3a70:	00ce6463          	bltu	t3,a2,800a3a78 <long2short+0x8c>
800a3a74:	0ff8f693          	zext.b	a3,a7
800a3a78:	00d80023          	sb	a3,0(a6)
800a3a7c:	fc67cce3          	blt	a5,t1,800a3a54 <long2short+0x68>
800a3a80:	00074783          	lbu	a5,0(a4)
800a3a84:	02078e63          	beqz	a5,800a3ac0 <long2short+0xd4>
800a3a88:	00858613          	addi	a2,a1,8
800a3a8c:	00370813          	addi	a6,a4,3
800a3a90:	01900513          	li	a0,25
800a3a94:	00074783          	lbu	a5,0(a4)
800a3a98:	00170713          	addi	a4,a4,1
800a3a9c:	f9f78693          	addi	a3,a5,-97
800a3aa0:	0ff6f693          	zext.b	a3,a3
800a3aa4:	fe078893          	addi	a7,a5,-32
800a3aa8:	00078c63          	beqz	a5,800a3ac0 <long2short+0xd4>
800a3aac:	00d56463          	bltu	a0,a3,800a3ab4 <long2short+0xc8>
800a3ab0:	0ff8f793          	zext.b	a5,a7
800a3ab4:	00f60023          	sb	a5,0(a2)
800a3ab8:	00160613          	addi	a2,a2,1
800a3abc:	fce81ce3          	bne	a6,a4,800a3a94 <long2short+0xa8>
800a3ac0:	00800793          	li	a5,8
800a3ac4:	01d7da63          	bge	a5,t4,800a3ad8 <long2short+0xec>
800a3ac8:	07e00793          	li	a5,126
800a3acc:	00f58323          	sb	a5,6(a1)
800a3ad0:	03100793          	li	a5,49
800a3ad4:	00f583a3          	sb	a5,7(a1)
800a3ad8:	00008067          	ret
800a3adc:	00074783          	lbu	a5,0(a4)
800a3ae0:	fa0794e3          	bnez	a5,800a3a88 <long2short+0x9c>
800a3ae4:	00008067          	ret

800a3ae8 <read_file>:
800a3ae8:	fa010113          	addi	sp,sp,-96
800a3aec:	00058793          	mv	a5,a1
800a3af0:	01410593          	addi	a1,sp,20
800a3af4:	04112e23          	sw	ra,92(sp)
800a3af8:	00f12623          	sw	a5,12(sp)
800a3afc:	ef1ff0ef          	jal	800a39ec <long2short>
800a3b00:	00000513          	li	a0,0
800a3b04:	d61ff0ef          	jal	800a3864 <get_partition_first_lba>
800a3b08:	00a12423          	sw	a0,8(sp)
800a3b0c:	00051663          	bnez	a0,800a3b18 <read_file+0x30>
800a3b10:	00012223          	sw	zero,4(sp)
800a3b14:	1c00006f          	j	800a3cd4 <read_file+0x1ec>
800a3b18:	801517b7          	lui	a5,0x80151
800a3b1c:	00050593          	mv	a1,a0
800a3b20:	04812c23          	sw	s0,88(sp)
800a3b24:	00100613          	li	a2,1
800a3b28:	06078413          	addi	s0,a5,96 # 80151060 <lba_buf>
800a3b2c:	06078513          	addi	a0,a5,96
800a3b30:	05312623          	sw	s3,76(sp)
800a3b34:	05412423          	sw	s4,72(sp)
800a3b38:	05512223          	sw	s5,68(sp)
800a3b3c:	03712e23          	sw	s7,60(sp)
800a3b40:	03812c23          	sw	s8,56(sp)
800a3b44:	5b0000ef          	jal	800a40f4 <sd_copy>
800a3b48:	00c44c03          	lbu	s8,12(s0)
800a3b4c:	00b44803          	lbu	a6,11(s0)
800a3b50:	00d44a03          	lbu	s4,13(s0)
800a3b54:	01044783          	lbu	a5,16(s0)
800a3b58:	02442703          	lw	a4,36(s0)
800a3b5c:	008c1c13          	slli	s8,s8,0x8
800a3b60:	010c6833          	or	a6,s8,a6
800a3b64:	03480bb3          	mul	s7,a6,s4
800a3b68:	00e45403          	lhu	s0,14(s0)
800a3b6c:	009c5c13          	srli	s8,s8,0x9
800a3b70:	02e787b3          	mul	a5,a5,a4
800a3b74:	000b8513          	mv	a0,s7
800a3b78:	00878ab3          	add	s5,a5,s0
800a3b7c:	a68ff0ef          	jal	800a2de4 <malloc>
800a3b80:	038a0a33          	mul	s4,s4,s8
800a3b84:	00050993          	mv	s3,a0
800a3b88:	16050e63          	beqz	a0,800a3d04 <read_file+0x21c>
800a3b8c:	04912a23          	sw	s1,84(sp)
800a3b90:	00200493          	li	s1,2
800a3b94:	ffe48593          	addi	a1,s1,-2
800a3b98:	00812703          	lw	a4,8(sp)
800a3b9c:	03912a23          	sw	s9,52(sp)
800a3ba0:	405bdb93          	srai	s7,s7,0x5
800a3ba4:	10000cb7          	lui	s9,0x10000
800a3ba8:	035c0ab3          	mul	s5,s8,s5
800a3bac:	000a0613          	mv	a2,s4
800a3bb0:	00098513          	mv	a0,s3
800a3bb4:	05212823          	sw	s2,80(sp)
800a3bb8:	05612023          	sw	s6,64(sp)
800a3bbc:	03b12623          	sw	s11,44(sp)
800a3bc0:	03a12823          	sw	s10,48(sp)
800a3bc4:	fff00913          	li	s2,-1
800a3bc8:	00012223          	sw	zero,4(sp)
800a3bcc:	0e500d93          	li	s11,229
800a3bd0:	038407b3          	mul	a5,s0,s8
800a3bd4:	00ea8ab3          	add	s5,s5,a4
800a3bd8:	00f00413          	li	s0,15
800a3bdc:	80151b37          	lui	s6,0x80151
800a3be0:	ff7c8c93          	addi	s9,s9,-9 # ffffff7 <__heap_size+0xfdffff7>
800a3be4:	034585b3          	mul	a1,a1,s4
800a3be8:	00e787b3          	add	a5,a5,a4
800a3bec:	00f12023          	sw	a5,0(sp)
800a3bf0:	015585b3          	add	a1,a1,s5
800a3bf4:	500000ef          	jal	800a40f4 <sd_copy>
800a3bf8:	0a0b8263          	beqz	s7,800a3c9c <read_file+0x1b4>
800a3bfc:	00098d13          	mv	s10,s3
800a3c00:	00000c13          	li	s8,0
800a3c04:	000d4703          	lbu	a4,0(s10)
800a3c08:	03b70063          	beq	a4,s11,800a3c28 <read_file+0x140>
800a3c0c:	00bd4703          	lbu	a4,11(s10)
800a3c10:	00b00613          	li	a2,11
800a3c14:	01410593          	addi	a1,sp,20
800a3c18:	000d0513          	mv	a0,s10
800a3c1c:	00870663          	beq	a4,s0,800a3c28 <read_file+0x140>
800a3c20:	e1cff0ef          	jal	800a323c <strncmp>
800a3c24:	0c050063          	beqz	a0,800a3ce4 <read_file+0x1fc>
800a3c28:	001c0c13          	addi	s8,s8,1
800a3c2c:	020d0d13          	addi	s10,s10,32
800a3c30:	fd8b9ae3          	bne	s7,s8,800a3c04 <read_file+0x11c>
800a3c34:	077c0463          	beq	s8,s7,800a3c9c <read_file+0x1b4>
800a3c38:	fff00793          	li	a5,-1
800a3c3c:	0094dc13          	srli	s8,s1,0x9
800a3c40:	1ff4f493          	andi	s1,s1,511
800a3c44:	00f90463          	beq	s2,a5,800a3c4c <read_file+0x164>
800a3c48:	032c0063          	beq	s8,s2,800a3c68 <read_file+0x180>
800a3c4c:	00012783          	lw	a5,0(sp)
800a3c50:	00bc1593          	slli	a1,s8,0xb
800a3c54:	0095d593          	srli	a1,a1,0x9
800a3c58:	00400613          	li	a2,4
800a3c5c:	00f585b3          	add	a1,a1,a5
800a3c60:	260b0513          	addi	a0,s6,608 # 80151260 <fat>
800a3c64:	490000ef          	jal	800a40f4 <sd_copy>
800a3c68:	00249493          	slli	s1,s1,0x2
800a3c6c:	260b0793          	addi	a5,s6,608
800a3c70:	009787b3          	add	a5,a5,s1
800a3c74:	0007a483          	lw	s1,0(a5)
800a3c78:	029ce263          	bltu	s9,s1,800a3c9c <read_file+0x1b4>
800a3c7c:	ffe48593          	addi	a1,s1,-2
800a3c80:	034585b3          	mul	a1,a1,s4
800a3c84:	000a0613          	mv	a2,s4
800a3c88:	00098513          	mv	a0,s3
800a3c8c:	000c0913          	mv	s2,s8
800a3c90:	015585b3          	add	a1,a1,s5
800a3c94:	460000ef          	jal	800a40f4 <sd_copy>
800a3c98:	f60b92e3          	bnez	s7,800a3bfc <read_file+0x114>
800a3c9c:	00098513          	mv	a0,s3
800a3ca0:	a6cff0ef          	jal	800a2f0c <free>
800a3ca4:	05812403          	lw	s0,88(sp)
800a3ca8:	05412483          	lw	s1,84(sp)
800a3cac:	05012903          	lw	s2,80(sp)
800a3cb0:	04c12983          	lw	s3,76(sp)
800a3cb4:	04812a03          	lw	s4,72(sp)
800a3cb8:	04412a83          	lw	s5,68(sp)
800a3cbc:	04012b03          	lw	s6,64(sp)
800a3cc0:	03c12b83          	lw	s7,60(sp)
800a3cc4:	03812c03          	lw	s8,56(sp)
800a3cc8:	03412c83          	lw	s9,52(sp)
800a3ccc:	03012d03          	lw	s10,48(sp)
800a3cd0:	02c12d83          	lw	s11,44(sp)
800a3cd4:	05c12083          	lw	ra,92(sp)
800a3cd8:	00412503          	lw	a0,4(sp)
800a3cdc:	06010113          	addi	sp,sp,96
800a3ce0:	00008067          	ret
800a3ce4:	00812603          	lw	a2,8(sp)
800a3ce8:	00c12503          	lw	a0,12(sp)
800a3cec:	801517b7          	lui	a5,0x80151
800a3cf0:	000d0693          	mv	a3,s10
800a3cf4:	06078593          	addi	a1,a5,96 # 80151060 <lba_buf>
800a3cf8:	8e1ff0ef          	jal	800a35d8 <copy_file>
800a3cfc:	00a12223          	sw	a0,4(sp)
800a3d00:	f35ff06f          	j	800a3c34 <read_file+0x14c>
800a3d04:	800f1537          	lui	a0,0x800f1
800a3d08:	33450513          	addi	a0,a0,820 # 800f1334 <__clzsi2+0x49178>
800a3d0c:	e49fe0ef          	jal	800a2b54 <printf>
800a3d10:	05812403          	lw	s0,88(sp)
800a3d14:	04c12983          	lw	s3,76(sp)
800a3d18:	04812a03          	lw	s4,72(sp)
800a3d1c:	04412a83          	lw	s5,68(sp)
800a3d20:	03c12b83          	lw	s7,60(sp)
800a3d24:	03812c03          	lw	s8,56(sp)
800a3d28:	00012223          	sw	zero,4(sp)
800a3d2c:	fa9ff06f          	j	800a3cd4 <read_file+0x1ec>

800a3d30 <sd_dummy>:
800a3d30:	0ff00513          	li	a0,255
800a3d34:	7d80006f          	j	800a450c <spi_txrx>

800a3d38 <sd_cmd>:
800a3d38:	ff010113          	addi	sp,sp,-16
800a3d3c:	01212023          	sw	s2,0(sp)
800a3d40:	00050913          	mv	s2,a0
800a3d44:	0ff00513          	li	a0,255
800a3d48:	00112623          	sw	ra,12(sp)
800a3d4c:	00812423          	sw	s0,8(sp)
800a3d50:	00912223          	sw	s1,4(sp)
800a3d54:	00058413          	mv	s0,a1
800a3d58:	00060493          	mv	s1,a2
800a3d5c:	7b0000ef          	jal	800a450c <spi_txrx>
800a3d60:	04096513          	ori	a0,s2,64
800a3d64:	7a8000ef          	jal	800a450c <spi_txrx>
800a3d68:	01845513          	srli	a0,s0,0x18
800a3d6c:	7a0000ef          	jal	800a450c <spi_txrx>
800a3d70:	01045513          	srli	a0,s0,0x10
800a3d74:	0ff57513          	zext.b	a0,a0
800a3d78:	794000ef          	jal	800a450c <spi_txrx>
800a3d7c:	00845513          	srli	a0,s0,0x8
800a3d80:	0ff57513          	zext.b	a0,a0
800a3d84:	788000ef          	jal	800a450c <spi_txrx>
800a3d88:	0ff47513          	zext.b	a0,s0
800a3d8c:	780000ef          	jal	800a450c <spi_txrx>
800a3d90:	00048513          	mv	a0,s1
800a3d94:	778000ef          	jal	800a450c <spi_txrx>
800a3d98:	06400413          	li	s0,100
800a3d9c:	0080006f          	j	800a3da4 <sd_cmd+0x6c>
800a3da0:	00040c63          	beqz	s0,800a3db8 <sd_cmd+0x80>
800a3da4:	0ff00513          	li	a0,255
800a3da8:	764000ef          	jal	800a450c <spi_txrx>
800a3dac:	0ff00793          	li	a5,255
800a3db0:	fff40413          	addi	s0,s0,-1
800a3db4:	fef506e3          	beq	a0,a5,800a3da0 <sd_cmd+0x68>
800a3db8:	00c12083          	lw	ra,12(sp)
800a3dbc:	00812403          	lw	s0,8(sp)
800a3dc0:	00412483          	lw	s1,4(sp)
800a3dc4:	00012903          	lw	s2,0(sp)
800a3dc8:	01010113          	addi	sp,sp,16
800a3dcc:	00008067          	ret

800a3dd0 <print_status>:
800a3dd0:	00008067          	ret

800a3dd4 <sd_cmd0>:
800a3dd4:	ff010113          	addi	sp,sp,-16
800a3dd8:	00912223          	sw	s1,4(sp)
800a3ddc:	01212023          	sw	s2,0(sp)
800a3de0:	00112623          	sw	ra,12(sp)
800a3de4:	00812423          	sw	s0,8(sp)
800a3de8:	3e800493          	li	s1,1000
800a3dec:	00100913          	li	s2,1
800a3df0:	09500613          	li	a2,149
800a3df4:	00000593          	li	a1,0
800a3df8:	00000513          	li	a0,0
800a3dfc:	f3dff0ef          	jal	800a3d38 <sd_cmd>
800a3e00:	00050413          	mv	s0,a0
800a3e04:	fff48493          	addi	s1,s1,-1
800a3e08:	0ff00513          	li	a0,255
800a3e0c:	700000ef          	jal	800a450c <spi_txrx>
800a3e10:	02048263          	beqz	s1,800a3e34 <sd_cmd0+0x60>
800a3e14:	fd241ee3          	bne	s0,s2,800a3df0 <sd_cmd0+0x1c>
800a3e18:	00c12083          	lw	ra,12(sp)
800a3e1c:	00812403          	lw	s0,8(sp)
800a3e20:	00412483          	lw	s1,4(sp)
800a3e24:	00012903          	lw	s2,0(sp)
800a3e28:	00100513          	li	a0,1
800a3e2c:	01010113          	addi	sp,sp,16
800a3e30:	00008067          	ret
800a3e34:	00c12083          	lw	ra,12(sp)
800a3e38:	00812403          	lw	s0,8(sp)
800a3e3c:	00412483          	lw	s1,4(sp)
800a3e40:	00012903          	lw	s2,0(sp)
800a3e44:	00000513          	li	a0,0
800a3e48:	01010113          	addi	sp,sp,16
800a3e4c:	00008067          	ret

800a3e50 <sd_cmd8>:
800a3e50:	ff010113          	addi	sp,sp,-16
800a3e54:	08700613          	li	a2,135
800a3e58:	1aa00593          	li	a1,426
800a3e5c:	00800513          	li	a0,8
800a3e60:	00112623          	sw	ra,12(sp)
800a3e64:	00812423          	sw	s0,8(sp)
800a3e68:	00912223          	sw	s1,4(sp)
800a3e6c:	01212023          	sw	s2,0(sp)
800a3e70:	ec9ff0ef          	jal	800a3d38 <sd_cmd>
800a3e74:	00050413          	mv	s0,a0
800a3e78:	0ff00513          	li	a0,255
800a3e7c:	690000ef          	jal	800a450c <spi_txrx>
800a3e80:	0ff00513          	li	a0,255
800a3e84:	688000ef          	jal	800a450c <spi_txrx>
800a3e88:	0ff00513          	li	a0,255
800a3e8c:	680000ef          	jal	800a450c <spi_txrx>
800a3e90:	00050493          	mv	s1,a0
800a3e94:	0ff00513          	li	a0,255
800a3e98:	674000ef          	jal	800a450c <spi_txrx>
800a3e9c:	00050913          	mv	s2,a0
800a3ea0:	0ff00513          	li	a0,255
800a3ea4:	668000ef          	jal	800a450c <spi_txrx>
800a3ea8:	0ff00513          	li	a0,255
800a3eac:	660000ef          	jal	800a450c <spi_txrx>
800a3eb0:	00100793          	li	a5,1
800a3eb4:	00000513          	li	a0,0
800a3eb8:	00f40e63          	beq	s0,a5,800a3ed4 <sd_cmd8+0x84>
800a3ebc:	00c12083          	lw	ra,12(sp)
800a3ec0:	00812403          	lw	s0,8(sp)
800a3ec4:	00412483          	lw	s1,4(sp)
800a3ec8:	00012903          	lw	s2,0(sp)
800a3ecc:	01010113          	addi	sp,sp,16
800a3ed0:	00008067          	ret
800a3ed4:	00f4f793          	andi	a5,s1,15
800a3ed8:	fe8792e3          	bne	a5,s0,800a3ebc <sd_cmd8+0x6c>
800a3edc:	00c12083          	lw	ra,12(sp)
800a3ee0:	00812403          	lw	s0,8(sp)
800a3ee4:	f5690793          	addi	a5,s2,-170
800a3ee8:	00412483          	lw	s1,4(sp)
800a3eec:	00012903          	lw	s2,0(sp)
800a3ef0:	0017b513          	seqz	a0,a5
800a3ef4:	01010113          	addi	sp,sp,16
800a3ef8:	00008067          	ret

800a3efc <sd_cmd55>:
800a3efc:	ff010113          	addi	sp,sp,-16
800a3f00:	06500613          	li	a2,101
800a3f04:	00000593          	li	a1,0
800a3f08:	03700513          	li	a0,55
800a3f0c:	00112623          	sw	ra,12(sp)
800a3f10:	00812423          	sw	s0,8(sp)
800a3f14:	e25ff0ef          	jal	800a3d38 <sd_cmd>
800a3f18:	00050413          	mv	s0,a0
800a3f1c:	0ff00513          	li	a0,255
800a3f20:	5ec000ef          	jal	800a450c <spi_txrx>
800a3f24:	00c12083          	lw	ra,12(sp)
800a3f28:	fff40513          	addi	a0,s0,-1
800a3f2c:	00812403          	lw	s0,8(sp)
800a3f30:	00153513          	seqz	a0,a0
800a3f34:	01010113          	addi	sp,sp,16
800a3f38:	00008067          	ret

800a3f3c <sd_acmd41>:
800a3f3c:	ff010113          	addi	sp,sp,-16
800a3f40:	00912223          	sw	s1,4(sp)
800a3f44:	00112623          	sw	ra,12(sp)
800a3f48:	00812423          	sw	s0,8(sp)
800a3f4c:	00100493          	li	s1,1
800a3f50:	06500613          	li	a2,101
800a3f54:	00000593          	li	a1,0
800a3f58:	03700513          	li	a0,55
800a3f5c:	dddff0ef          	jal	800a3d38 <sd_cmd>
800a3f60:	0ff00513          	li	a0,255
800a3f64:	5a8000ef          	jal	800a450c <spi_txrx>
800a3f68:	07700613          	li	a2,119
800a3f6c:	400005b7          	lui	a1,0x40000
800a3f70:	02900513          	li	a0,41
800a3f74:	dc5ff0ef          	jal	800a3d38 <sd_cmd>
800a3f78:	00050413          	mv	s0,a0
800a3f7c:	0ff00513          	li	a0,255
800a3f80:	58c000ef          	jal	800a450c <spi_txrx>
800a3f84:	fc9406e3          	beq	s0,s1,800a3f50 <sd_acmd41+0x14>
800a3f88:	00c12083          	lw	ra,12(sp)
800a3f8c:	00143513          	seqz	a0,s0
800a3f90:	00812403          	lw	s0,8(sp)
800a3f94:	00412483          	lw	s1,4(sp)
800a3f98:	01010113          	addi	sp,sp,16
800a3f9c:	00008067          	ret

800a3fa0 <init_sd>:
800a3fa0:	ff010113          	addi	sp,sp,-16
800a3fa4:	00112623          	sw	ra,12(sp)
800a3fa8:	00812423          	sw	s0,8(sp)
800a3fac:	00912223          	sw	s1,4(sp)
800a3fb0:	01212023          	sw	s2,0(sp)
800a3fb4:	50c000ef          	jal	800a44c0 <spi_init>
800a3fb8:	801527b7          	lui	a5,0x80152
800a3fbc:	a6078793          	addi	a5,a5,-1440 # 80151a60 <const_ff>
800a3fc0:	08078693          	addi	a3,a5,128
800a3fc4:	fff00713          	li	a4,-1
800a3fc8:	00e7a023          	sw	a4,0(a5)
800a3fcc:	00478793          	addi	a5,a5,4
800a3fd0:	fef69ce3          	bne	a3,a5,800a3fc8 <init_sd+0x28>
800a3fd4:	00a00413          	li	s0,10
800a3fd8:	0ff00513          	li	a0,255
800a3fdc:	fff40413          	addi	s0,s0,-1
800a3fe0:	52c000ef          	jal	800a450c <spi_txrx>
800a3fe4:	fe041ae3          	bnez	s0,800a3fd8 <init_sd+0x38>
800a3fe8:	3e800493          	li	s1,1000
800a3fec:	00100913          	li	s2,1
800a3ff0:	09500613          	li	a2,149
800a3ff4:	00000593          	li	a1,0
800a3ff8:	00000513          	li	a0,0
800a3ffc:	d3dff0ef          	jal	800a3d38 <sd_cmd>
800a4000:	00050413          	mv	s0,a0
800a4004:	fff48493          	addi	s1,s1,-1
800a4008:	0ff00513          	li	a0,255
800a400c:	500000ef          	jal	800a450c <spi_txrx>
800a4010:	02048a63          	beqz	s1,800a4044 <init_sd+0xa4>
800a4014:	fd241ee3          	bne	s0,s2,800a3ff0 <init_sd+0x50>
800a4018:	e39ff0ef          	jal	800a3e50 <sd_cmd8>
800a401c:	04050263          	beqz	a0,800a4060 <init_sd+0xc0>
800a4020:	f1dff0ef          	jal	800a3f3c <sd_acmd41>
800a4024:	04050263          	beqz	a0,800a4068 <init_sd+0xc8>
800a4028:	00000513          	li	a0,0
800a402c:	00c12083          	lw	ra,12(sp)
800a4030:	00812403          	lw	s0,8(sp)
800a4034:	00412483          	lw	s1,4(sp)
800a4038:	00012903          	lw	s2,0(sp)
800a403c:	01010113          	addi	sp,sp,16
800a4040:	00008067          	ret
800a4044:	00c12083          	lw	ra,12(sp)
800a4048:	00812403          	lw	s0,8(sp)
800a404c:	00412483          	lw	s1,4(sp)
800a4050:	00012903          	lw	s2,0(sp)
800a4054:	fff00513          	li	a0,-1
800a4058:	01010113          	addi	sp,sp,16
800a405c:	00008067          	ret
800a4060:	ffe00513          	li	a0,-2
800a4064:	fc9ff06f          	j	800a402c <init_sd+0x8c>
800a4068:	ffd00513          	li	a0,-3
800a406c:	fc1ff06f          	j	800a402c <init_sd+0x8c>

800a4070 <crc7>:
800a4070:	00b575b3          	and	a1,a0,a1
800a4074:	0075d793          	srli	a5,a1,0x7
800a4078:	0045d513          	srli	a0,a1,0x4
800a407c:	00f54533          	xor	a0,a0,a5
800a4080:	00b54533          	xor	a0,a0,a1
800a4084:	00451793          	slli	a5,a0,0x4
800a4088:	0ff7f793          	zext.b	a5,a5
800a408c:	00f54533          	xor	a0,a0,a5
800a4090:	07f57513          	andi	a0,a0,127
800a4094:	00008067          	ret

800a4098 <crc16>:
800a4098:	00851793          	slli	a5,a0,0x8
800a409c:	00855513          	srli	a0,a0,0x8
800a40a0:	00a7e7b3          	or	a5,a5,a0
800a40a4:	01079793          	slli	a5,a5,0x10
800a40a8:	0107d793          	srli	a5,a5,0x10
800a40ac:	00f5c5b3          	xor	a1,a1,a5
800a40b0:	0045d793          	srli	a5,a1,0x4
800a40b4:	00f7f793          	andi	a5,a5,15
800a40b8:	00f5c533          	xor	a0,a1,a5
800a40bc:	01051513          	slli	a0,a0,0x10
800a40c0:	41055513          	srai	a0,a0,0x10
800a40c4:	00c51793          	slli	a5,a0,0xc
800a40c8:	00f54533          	xor	a0,a0,a5
800a40cc:	01051513          	slli	a0,a0,0x10
800a40d0:	41055513          	srai	a0,a0,0x10
800a40d4:	00002737          	lui	a4,0x2
800a40d8:	00551793          	slli	a5,a0,0x5
800a40dc:	fe070713          	addi	a4,a4,-32 # 1fe0 <__stack_size+0x17e0>
800a40e0:	00e7f7b3          	and	a5,a5,a4
800a40e4:	00f54533          	xor	a0,a0,a5
800a40e8:	01051513          	slli	a0,a0,0x10
800a40ec:	01055513          	srli	a0,a0,0x10
800a40f0:	00008067          	ret

800a40f4 <sd_copy>:
800a40f4:	fd010113          	addi	sp,sp,-48
800a40f8:	01312e23          	sw	s3,28(sp)
800a40fc:	01512a23          	sw	s5,20(sp)
800a4100:	00060993          	mv	s3,a2
800a4104:	00050a93          	mv	s5,a0
800a4108:	00100613          	li	a2,1
800a410c:	01200513          	li	a0,18
800a4110:	02812423          	sw	s0,40(sp)
800a4114:	02912223          	sw	s1,36(sp)
800a4118:	01612823          	sw	s6,16(sp)
800a411c:	02112623          	sw	ra,44(sp)
800a4120:	00002b37          	lui	s6,0x2
800a4124:	c15ff0ef          	jal	800a3d38 <sd_cmd>
800a4128:	801524b7          	lui	s1,0x80152
800a412c:	0fe00413          	li	s0,254
800a4130:	fe0b0b13          	addi	s6,s6,-32 # 1fe0 <__stack_size+0x17e0>
800a4134:	12051a63          	bnez	a0,800a4268 <sd_copy+0x174>
800a4138:	03212023          	sw	s2,32(sp)
800a413c:	01412c23          	sw	s4,24(sp)
800a4140:	01712623          	sw	s7,12(sp)
800a4144:	0ff00513          	li	a0,255
800a4148:	3c4000ef          	jal	800a450c <spi_txrx>
800a414c:	fe851ce3          	bne	a0,s0,800a4144 <sd_copy+0x50>
800a4150:	000a8b93          	mv	s7,s5
800a4154:	00000a13          	li	s4,0
800a4158:	040a8a93          	addi	s5,s5,64
800a415c:	200b8913          	addi	s2,s7,512
800a4160:	000b8613          	mv	a2,s7
800a4164:	04000593          	li	a1,64
800a4168:	a6048513          	addi	a0,s1,-1440 # 80151a60 <const_ff>
800a416c:	420000ef          	jal	800a458c <spi_write_bytes>
800a4170:	000b8693          	mv	a3,s7
800a4174:	008a1713          	slli	a4,s4,0x8
800a4178:	008a5a13          	srli	s4,s4,0x8
800a417c:	0006c783          	lbu	a5,0(a3)
800a4180:	01476733          	or	a4,a4,s4
800a4184:	01071713          	slli	a4,a4,0x10
800a4188:	01075713          	srli	a4,a4,0x10
800a418c:	00e7c7b3          	xor	a5,a5,a4
800a4190:	0047d713          	srli	a4,a5,0x4
800a4194:	00f77713          	andi	a4,a4,15
800a4198:	00e7c7b3          	xor	a5,a5,a4
800a419c:	01079793          	slli	a5,a5,0x10
800a41a0:	4107d793          	srai	a5,a5,0x10
800a41a4:	00c79713          	slli	a4,a5,0xc
800a41a8:	00e7c7b3          	xor	a5,a5,a4
800a41ac:	01079793          	slli	a5,a5,0x10
800a41b0:	4107d793          	srai	a5,a5,0x10
800a41b4:	00579713          	slli	a4,a5,0x5
800a41b8:	01677733          	and	a4,a4,s6
800a41bc:	00e7c7b3          	xor	a5,a5,a4
800a41c0:	01079a13          	slli	s4,a5,0x10
800a41c4:	00168693          	addi	a3,a3,1
800a41c8:	010a5a13          	srli	s4,s4,0x10
800a41cc:	fb5694e3          	bne	a3,s5,800a4174 <sd_copy+0x80>
800a41d0:	040b8b93          	addi	s7,s7,64
800a41d4:	04068a93          	addi	s5,a3,64
800a41d8:	f92b94e3          	bne	s7,s2,800a4160 <sd_copy+0x6c>
800a41dc:	0ff00513          	li	a0,255
800a41e0:	32c000ef          	jal	800a450c <spi_txrx>
800a41e4:	00851913          	slli	s2,a0,0x8
800a41e8:	01091913          	slli	s2,s2,0x10
800a41ec:	0ff00513          	li	a0,255
800a41f0:	01095913          	srli	s2,s2,0x10
800a41f4:	318000ef          	jal	800a450c <spi_txrx>
800a41f8:	012567b3          	or	a5,a0,s2
800a41fc:	01079793          	slli	a5,a5,0x10
800a4200:	0107d793          	srli	a5,a5,0x10
800a4204:	000b8a93          	mv	s5,s7
800a4208:	01479a63          	bne	a5,s4,800a421c <sd_copy+0x128>
800a420c:	fff98993          	addi	s3,s3,-1
800a4210:	f3304ae3          	bgtz	s3,800a4144 <sd_copy+0x50>
800a4214:	00000413          	li	s0,0
800a4218:	0080006f          	j	800a4220 <sd_copy+0x12c>
800a421c:	ffc00413          	li	s0,-4
800a4220:	00100613          	li	a2,1
800a4224:	00000593          	li	a1,0
800a4228:	00c00513          	li	a0,12
800a422c:	b0dff0ef          	jal	800a3d38 <sd_cmd>
800a4230:	0ff00513          	li	a0,255
800a4234:	2d8000ef          	jal	800a450c <spi_txrx>
800a4238:	02012903          	lw	s2,32(sp)
800a423c:	01812a03          	lw	s4,24(sp)
800a4240:	00c12b83          	lw	s7,12(sp)
800a4244:	02c12083          	lw	ra,44(sp)
800a4248:	00040513          	mv	a0,s0
800a424c:	02812403          	lw	s0,40(sp)
800a4250:	02412483          	lw	s1,36(sp)
800a4254:	01c12983          	lw	s3,28(sp)
800a4258:	01412a83          	lw	s5,20(sp)
800a425c:	01012b03          	lw	s6,16(sp)
800a4260:	03010113          	addi	sp,sp,48
800a4264:	00008067          	ret
800a4268:	00800413          	li	s0,8
800a426c:	0ff00513          	li	a0,255
800a4270:	fff40413          	addi	s0,s0,-1
800a4274:	298000ef          	jal	800a450c <spi_txrx>
800a4278:	fe041ae3          	bnez	s0,800a426c <sd_copy+0x178>
800a427c:	800f1537          	lui	a0,0x800f1
800a4280:	35050513          	addi	a0,a0,848 # 800f1350 <__clzsi2+0x49194>
800a4284:	8d1fe0ef          	jal	800a2b54 <printf>
800a4288:	fff00413          	li	s0,-1
800a428c:	fb9ff06f          	j	800a4244 <sd_copy+0x150>

800a4290 <sd_write>:
800a4290:	fb010113          	addi	sp,sp,-80
800a4294:	05212023          	sw	s2,64(sp)
800a4298:	03912223          	sw	s9,36(sp)
800a429c:	00060913          	mv	s2,a2
800a42a0:	00050c93          	mv	s9,a0
800a42a4:	00100613          	li	a2,1
800a42a8:	01900513          	li	a0,25
800a42ac:	04112623          	sw	ra,76(sp)
800a42b0:	04812423          	sw	s0,72(sp)
800a42b4:	a85ff0ef          	jal	800a3d38 <sd_cmd>
800a42b8:	1c051863          	bnez	a0,800a4488 <sd_write+0x1f8>
800a42bc:	03a12023          	sw	s10,32(sp)
800a42c0:	0ff00513          	li	a0,255
800a42c4:	00002d37          	lui	s10,0x2
800a42c8:	03312e23          	sw	s3,60(sp)
800a42cc:	03412c23          	sw	s4,56(sp)
800a42d0:	03512a23          	sw	s5,52(sp)
800a42d4:	03612823          	sw	s6,48(sp)
800a42d8:	03712623          	sw	s7,44(sp)
800a42dc:	04912223          	sw	s1,68(sp)
800a42e0:	03812423          	sw	s8,40(sp)
800a42e4:	01b12e23          	sw	s11,28(sp)
800a42e8:	80152437          	lui	s0,0x80152
800a42ec:	220000ef          	jal	800a450c <spi_txrx>
800a42f0:	fe0d0d13          	addi	s10,s10,-32 # 1fe0 <__stack_size+0x17e0>
800a42f4:	00a00b93          	li	s7,10
800a42f8:	00c00b13          	li	s6,12
800a42fc:	00500a93          	li	s5,5
800a4300:	3e800a13          	li	s4,1000
800a4304:	800f19b7          	lui	s3,0x800f1
800a4308:	000c8d93          	mv	s11,s9
800a430c:	0fc00513          	li	a0,252
800a4310:	1fc000ef          	jal	800a450c <spi_txrx>
800a4314:	040c8c93          	addi	s9,s9,64
800a4318:	00000c13          	li	s8,0
800a431c:	200d8493          	addi	s1,s11,512
800a4320:	a6040613          	addi	a2,s0,-1440 # 80151a60 <const_ff>
800a4324:	04000593          	li	a1,64
800a4328:	000d8513          	mv	a0,s11
800a432c:	260000ef          	jal	800a458c <spi_write_bytes>
800a4330:	000d8693          	mv	a3,s11
800a4334:	008c1713          	slli	a4,s8,0x8
800a4338:	008c5c13          	srli	s8,s8,0x8
800a433c:	0006c783          	lbu	a5,0(a3)
800a4340:	01876733          	or	a4,a4,s8
800a4344:	01071713          	slli	a4,a4,0x10
800a4348:	01075713          	srli	a4,a4,0x10
800a434c:	00e7c7b3          	xor	a5,a5,a4
800a4350:	0047d713          	srli	a4,a5,0x4
800a4354:	00f77713          	andi	a4,a4,15
800a4358:	00e7c7b3          	xor	a5,a5,a4
800a435c:	01079793          	slli	a5,a5,0x10
800a4360:	4107d793          	srai	a5,a5,0x10
800a4364:	00c79713          	slli	a4,a5,0xc
800a4368:	00e7c7b3          	xor	a5,a5,a4
800a436c:	01079793          	slli	a5,a5,0x10
800a4370:	4107d793          	srai	a5,a5,0x10
800a4374:	00579713          	slli	a4,a5,0x5
800a4378:	01a77733          	and	a4,a4,s10
800a437c:	00e7c7b3          	xor	a5,a5,a4
800a4380:	01079713          	slli	a4,a5,0x10
800a4384:	01079c13          	slli	s8,a5,0x10
800a4388:	00168693          	addi	a3,a3,1
800a438c:	41075713          	srai	a4,a4,0x10
800a4390:	010c5c13          	srli	s8,s8,0x10
800a4394:	fadc90e3          	bne	s9,a3,800a4334 <sd_write+0xa4>
800a4398:	040d8d93          	addi	s11,s11,64
800a439c:	040c8c93          	addi	s9,s9,64
800a43a0:	f89d90e3          	bne	s11,s1,800a4320 <sd_write+0x90>
800a43a4:	00000513          	li	a0,0
800a43a8:	00e12623          	sw	a4,12(sp)
800a43ac:	160000ef          	jal	800a450c <spi_txrx>
800a43b0:	00c12703          	lw	a4,12(sp)
800a43b4:	000d8c93          	mv	s9,s11
800a43b8:	0ff77513          	zext.b	a0,a4
800a43bc:	150000ef          	jal	800a450c <spi_txrx>
800a43c0:	0ff00513          	li	a0,255
800a43c4:	148000ef          	jal	800a450c <spi_txrx>
800a43c8:	0ff00793          	li	a5,255
800a43cc:	fef50ae3          	beq	a0,a5,800a43c0 <sd_write+0x130>
800a43d0:	01f57513          	andi	a0,a0,31
800a43d4:	03750e63          	beq	a0,s7,800a4410 <sd_write+0x180>
800a43d8:	0b650463          	beq	a0,s6,800a4480 <sd_write+0x1f0>
800a43dc:	09551e63          	bne	a0,s5,800a4478 <sd_write+0x1e8>
800a43e0:	0ff00513          	li	a0,255
800a43e4:	128000ef          	jal	800a450c <spi_txrx>
800a43e8:	fe050ce3          	beqz	a0,800a43e0 <sd_write+0x150>
800a43ec:	034967b3          	rem	a5,s2,s4
800a43f0:	00078a63          	beqz	a5,800a4404 <sd_write+0x174>
800a43f4:	fff90913          	addi	s2,s2,-1
800a43f8:	f12048e3          	bgtz	s2,800a4308 <sd_write+0x78>
800a43fc:	00000413          	li	s0,0
800a4400:	0140006f          	j	800a4414 <sd_write+0x184>
800a4404:	38898513          	addi	a0,s3,904 # 800f1388 <__clzsi2+0x491cc>
800a4408:	f4cfe0ef          	jal	800a2b54 <printf>
800a440c:	fe9ff06f          	j	800a43f4 <sd_write+0x164>
800a4410:	ffe00413          	li	s0,-2
800a4414:	0fd00513          	li	a0,253
800a4418:	0f4000ef          	jal	800a450c <spi_txrx>
800a441c:	0ff00513          	li	a0,255
800a4420:	0ec000ef          	jal	800a450c <spi_txrx>
800a4424:	0ff00513          	li	a0,255
800a4428:	0e4000ef          	jal	800a450c <spi_txrx>
800a442c:	fe050ce3          	beqz	a0,800a4424 <sd_write+0x194>
800a4430:	0ff00513          	li	a0,255
800a4434:	0d8000ef          	jal	800a450c <spi_txrx>
800a4438:	04412483          	lw	s1,68(sp)
800a443c:	03c12983          	lw	s3,60(sp)
800a4440:	03812a03          	lw	s4,56(sp)
800a4444:	03412a83          	lw	s5,52(sp)
800a4448:	03012b03          	lw	s6,48(sp)
800a444c:	02c12b83          	lw	s7,44(sp)
800a4450:	02812c03          	lw	s8,40(sp)
800a4454:	02012d03          	lw	s10,32(sp)
800a4458:	01c12d83          	lw	s11,28(sp)
800a445c:	04c12083          	lw	ra,76(sp)
800a4460:	00040513          	mv	a0,s0
800a4464:	04812403          	lw	s0,72(sp)
800a4468:	04012903          	lw	s2,64(sp)
800a446c:	02412c83          	lw	s9,36(sp)
800a4470:	05010113          	addi	sp,sp,80
800a4474:	00008067          	ret
800a4478:	ffc00413          	li	s0,-4
800a447c:	f99ff06f          	j	800a4414 <sd_write+0x184>
800a4480:	ffd00413          	li	s0,-3
800a4484:	f91ff06f          	j	800a4414 <sd_write+0x184>
800a4488:	00800413          	li	s0,8
800a448c:	0ff00513          	li	a0,255
800a4490:	fff40413          	addi	s0,s0,-1
800a4494:	078000ef          	jal	800a450c <spi_txrx>
800a4498:	fe041ae3          	bnez	s0,800a448c <sd_write+0x1fc>
800a449c:	800f1537          	lui	a0,0x800f1
800a44a0:	36c50513          	addi	a0,a0,876 # 800f136c <__clzsi2+0x491b0>
800a44a4:	eb0fe0ef          	jal	800a2b54 <printf>
800a44a8:	fff00413          	li	s0,-1
800a44ac:	fb1ff06f          	j	800a445c <sd_write+0x1cc>

800a44b0 <write_reg>:
800a44b0:	00b52023          	sw	a1,0(a0)
800a44b4:	00008067          	ret

800a44b8 <read_reg>:
800a44b8:	00052503          	lw	a0,0(a0)
800a44bc:	00008067          	ret

800a44c0 <spi_init>:
800a44c0:	c20007b7          	lui	a5,0xc2000
800a44c4:	00a00713          	li	a4,10
800a44c8:	04e7a023          	sw	a4,64(a5) # c2000040 <__stack_top+0x417fe840>
800a44cc:	00a00793          	li	a5,10
800a44d0:	00000013          	nop
800a44d4:	fff78793          	addi	a5,a5,-1
800a44d8:	fe079ce3          	bnez	a5,800a44d0 <spi_init+0x10>
800a44dc:	c20007b7          	lui	a5,0xc2000
800a44e0:	10400693          	li	a3,260
800a44e4:	06d7a023          	sw	a3,96(a5) # c2000060 <__stack_top+0x417fe860>
800a44e8:	c2000737          	lui	a4,0xc2000
800a44ec:	06472683          	lw	a3,100(a4) # c2000064 <__stack_top+0x417fe864>
800a44f0:	06470713          	addi	a4,a4,100
800a44f4:	16600693          	li	a3,358
800a44f8:	06d7a023          	sw	a3,96(a5)
800a44fc:	00072703          	lw	a4,0(a4)
800a4500:	00600713          	li	a4,6
800a4504:	06e7a023          	sw	a4,96(a5)
800a4508:	00008067          	ret

800a450c <spi_txrx>:
800a450c:	c20007b7          	lui	a5,0xc2000
800a4510:	ffe00693          	li	a3,-2
800a4514:	06d7a823          	sw	a3,112(a5) # c2000070 <__stack_top+0x417fe870>
800a4518:	c2000737          	lui	a4,0xc2000
800a451c:	1f400793          	li	a5,500
800a4520:	06a72423          	sw	a0,104(a4) # c2000068 <__stack_top+0x417fe868>
800a4524:	00000013          	nop
800a4528:	fff78793          	addi	a5,a5,-1
800a452c:	fe079ce3          	bnez	a5,800a4524 <spi_txrx+0x18>
800a4530:	c20007b7          	lui	a5,0xc2000
800a4534:	c2000737          	lui	a4,0xc2000
800a4538:	10600693          	li	a3,262
800a453c:	06d7a023          	sw	a3,96(a5) # c2000060 <__stack_top+0x417fe860>
800a4540:	06470713          	addi	a4,a4,100 # c2000064 <__stack_top+0x417fe864>
800a4544:	00072783          	lw	a5,0(a4)
800a4548:	0017f793          	andi	a5,a5,1
800a454c:	fe079ce3          	bnez	a5,800a4544 <spi_txrx+0x38>
800a4550:	c20007b7          	lui	a5,0xc2000
800a4554:	06c7a503          	lw	a0,108(a5) # c200006c <__stack_top+0x417fe86c>
800a4558:	c2000737          	lui	a4,0xc2000
800a455c:	06470713          	addi	a4,a4,100 # c2000064 <__stack_top+0x417fe864>
800a4560:	0ff57513          	zext.b	a0,a0
800a4564:	00072783          	lw	a5,0(a4)
800a4568:	0017f793          	andi	a5,a5,1
800a456c:	fe078ce3          	beqz	a5,800a4564 <spi_txrx+0x58>
800a4570:	c2000737          	lui	a4,0xc2000
800a4574:	fff00693          	li	a3,-1
800a4578:	06d72823          	sw	a3,112(a4) # c2000070 <__stack_top+0x417fe870>
800a457c:	c20007b7          	lui	a5,0xc2000
800a4580:	00600713          	li	a4,6
800a4584:	06e7a023          	sw	a4,96(a5) # c2000060 <__stack_top+0x417fe860>
800a4588:	00008067          	ret

800a458c <spi_write_bytes>:
800a458c:	10000793          	li	a5,256
800a4590:	0cb7e463          	bltu	a5,a1,800a4658 <spi_write_bytes+0xcc>
800a4594:	c20007b7          	lui	a5,0xc2000
800a4598:	ffe00713          	li	a4,-2
800a459c:	06e7a823          	sw	a4,112(a5) # c2000070 <__stack_top+0x417fe870>
800a45a0:	02058063          	beqz	a1,800a45c0 <spi_write_bytes+0x34>
800a45a4:	c2000737          	lui	a4,0xc2000
800a45a8:	00b506b3          	add	a3,a0,a1
800a45ac:	06870713          	addi	a4,a4,104 # c2000068 <__stack_top+0x417fe868>
800a45b0:	00054783          	lbu	a5,0(a0)
800a45b4:	00150513          	addi	a0,a0,1
800a45b8:	00f72023          	sw	a5,0(a4)
800a45bc:	fed51ae3          	bne	a0,a3,800a45b0 <spi_write_bytes+0x24>
800a45c0:	1f400793          	li	a5,500
800a45c4:	00000013          	nop
800a45c8:	fff78793          	addi	a5,a5,-1
800a45cc:	fe079ce3          	bnez	a5,800a45c4 <spi_write_bytes+0x38>
800a45d0:	c20007b7          	lui	a5,0xc2000
800a45d4:	c2000737          	lui	a4,0xc2000
800a45d8:	10600693          	li	a3,262
800a45dc:	06d7a023          	sw	a3,96(a5) # c2000060 <__stack_top+0x417fe860>
800a45e0:	06470713          	addi	a4,a4,100 # c2000064 <__stack_top+0x417fe864>
800a45e4:	00072783          	lw	a5,0(a4)
800a45e8:	0017f793          	andi	a5,a5,1
800a45ec:	fe079ce3          	bnez	a5,800a45e4 <spi_write_bytes+0x58>
800a45f0:	02058a63          	beqz	a1,800a4624 <spi_write_bytes+0x98>
800a45f4:	c20006b7          	lui	a3,0xc2000
800a45f8:	c2000537          	lui	a0,0xc2000
800a45fc:	00b60733          	add	a4,a2,a1
800a4600:	06468693          	addi	a3,a3,100 # c2000064 <__stack_top+0x417fe864>
800a4604:	06c50513          	addi	a0,a0,108 # c200006c <__stack_top+0x417fe86c>
800a4608:	0006a783          	lw	a5,0(a3)
800a460c:	0017f793          	andi	a5,a5,1
800a4610:	00079663          	bnez	a5,800a461c <spi_write_bytes+0x90>
800a4614:	00052783          	lw	a5,0(a0)
800a4618:	00f60023          	sb	a5,0(a2)
800a461c:	00160613          	addi	a2,a2,1
800a4620:	fec714e3          	bne	a4,a2,800a4608 <spi_write_bytes+0x7c>
800a4624:	c2000737          	lui	a4,0xc2000
800a4628:	06470713          	addi	a4,a4,100 # c2000064 <__stack_top+0x417fe864>
800a462c:	00072783          	lw	a5,0(a4)
800a4630:	0017f793          	andi	a5,a5,1
800a4634:	fe078ce3          	beqz	a5,800a462c <spi_write_bytes+0xa0>
800a4638:	c2000737          	lui	a4,0xc2000
800a463c:	fff00693          	li	a3,-1
800a4640:	06d72823          	sw	a3,112(a4) # c2000070 <__stack_top+0x417fe870>
800a4644:	c20007b7          	lui	a5,0xc2000
800a4648:	00600713          	li	a4,6
800a464c:	06e7a023          	sw	a4,96(a5) # c2000060 <__stack_top+0x417fe860>
800a4650:	00000513          	li	a0,0
800a4654:	00008067          	ret
800a4658:	fff00513          	li	a0,-1
800a465c:	00008067          	ret

800a4660 <__divdi3>:
800a4660:	00050313          	mv	t1,a0
800a4664:	00058e13          	mv	t3,a1
800a4668:	00000893          	li	a7,0
800a466c:	0005dc63          	bgez	a1,800a4684 <__divdi3+0x24>
800a4670:	00a037b3          	snez	a5,a0
800a4674:	40b00e33          	neg	t3,a1
800a4678:	40fe0e33          	sub	t3,t3,a5
800a467c:	40a00333          	neg	t1,a0
800a4680:	fff00893          	li	a7,-1
800a4684:	0006dc63          	bgez	a3,800a469c <__divdi3+0x3c>
800a4688:	00c037b3          	snez	a5,a2
800a468c:	40d006b3          	neg	a3,a3
800a4690:	fff8c893          	not	a7,a7
800a4694:	40f686b3          	sub	a3,a3,a5
800a4698:	40c00633          	neg	a2,a2
800a469c:	00060713          	mv	a4,a2
800a46a0:	00030813          	mv	a6,t1
800a46a4:	000e0793          	mv	a5,t3
800a46a8:	28069c63          	bnez	a3,800a4940 <__divdi3+0x2e0>
800a46ac:	800f15b7          	lui	a1,0x800f1
800a46b0:	59858593          	addi	a1,a1,1432 # 800f1598 <__clz_tab>
800a46b4:	0ece7663          	bgeu	t3,a2,800a47a0 <__divdi3+0x140>
800a46b8:	000106b7          	lui	a3,0x10
800a46bc:	0cd67863          	bgeu	a2,a3,800a478c <__divdi3+0x12c>
800a46c0:	10063693          	sltiu	a3,a2,256
800a46c4:	0016b693          	seqz	a3,a3
800a46c8:	00369693          	slli	a3,a3,0x3
800a46cc:	00d65533          	srl	a0,a2,a3
800a46d0:	00a585b3          	add	a1,a1,a0
800a46d4:	0005c583          	lbu	a1,0(a1)
800a46d8:	02000513          	li	a0,32
800a46dc:	00d586b3          	add	a3,a1,a3
800a46e0:	40d505b3          	sub	a1,a0,a3
800a46e4:	00d50c63          	beq	a0,a3,800a46fc <__divdi3+0x9c>
800a46e8:	00be17b3          	sll	a5,t3,a1
800a46ec:	00d356b3          	srl	a3,t1,a3
800a46f0:	00b61733          	sll	a4,a2,a1
800a46f4:	00f6e7b3          	or	a5,a3,a5
800a46f8:	00b31833          	sll	a6,t1,a1
800a46fc:	01075593          	srli	a1,a4,0x10
800a4700:	02b7de33          	divu	t3,a5,a1
800a4704:	01071613          	slli	a2,a4,0x10
800a4708:	01065613          	srli	a2,a2,0x10
800a470c:	02b7f7b3          	remu	a5,a5,a1
800a4710:	000e0513          	mv	a0,t3
800a4714:	03c60333          	mul	t1,a2,t3
800a4718:	01079693          	slli	a3,a5,0x10
800a471c:	01085793          	srli	a5,a6,0x10
800a4720:	00d7e7b3          	or	a5,a5,a3
800a4724:	0067fe63          	bgeu	a5,t1,800a4740 <__divdi3+0xe0>
800a4728:	00f707b3          	add	a5,a4,a5
800a472c:	fffe0513          	addi	a0,t3,-1
800a4730:	00e7e863          	bltu	a5,a4,800a4740 <__divdi3+0xe0>
800a4734:	0067f663          	bgeu	a5,t1,800a4740 <__divdi3+0xe0>
800a4738:	ffee0513          	addi	a0,t3,-2
800a473c:	00e787b3          	add	a5,a5,a4
800a4740:	406787b3          	sub	a5,a5,t1
800a4744:	02b7d333          	divu	t1,a5,a1
800a4748:	01081813          	slli	a6,a6,0x10
800a474c:	01085813          	srli	a6,a6,0x10
800a4750:	02b7f7b3          	remu	a5,a5,a1
800a4754:	026606b3          	mul	a3,a2,t1
800a4758:	01079793          	slli	a5,a5,0x10
800a475c:	00f86833          	or	a6,a6,a5
800a4760:	00030793          	mv	a5,t1
800a4764:	00d87c63          	bgeu	a6,a3,800a477c <__divdi3+0x11c>
800a4768:	01070833          	add	a6,a4,a6
800a476c:	fff30793          	addi	a5,t1,-1
800a4770:	00e86663          	bltu	a6,a4,800a477c <__divdi3+0x11c>
800a4774:	00d87463          	bgeu	a6,a3,800a477c <__divdi3+0x11c>
800a4778:	ffe30793          	addi	a5,t1,-2
800a477c:	01051513          	slli	a0,a0,0x10
800a4780:	00f56533          	or	a0,a0,a5
800a4784:	00000593          	li	a1,0
800a4788:	0e00006f          	j	800a4868 <__divdi3+0x208>
800a478c:	01000537          	lui	a0,0x1000
800a4790:	01800693          	li	a3,24
800a4794:	f2a67ce3          	bgeu	a2,a0,800a46cc <__divdi3+0x6c>
800a4798:	01000693          	li	a3,16
800a479c:	f31ff06f          	j	800a46cc <__divdi3+0x6c>
800a47a0:	00000693          	li	a3,0
800a47a4:	00060c63          	beqz	a2,800a47bc <__divdi3+0x15c>
800a47a8:	000107b7          	lui	a5,0x10
800a47ac:	0cf67a63          	bgeu	a2,a5,800a4880 <__divdi3+0x220>
800a47b0:	10063693          	sltiu	a3,a2,256
800a47b4:	0016b693          	seqz	a3,a3
800a47b8:	00369693          	slli	a3,a3,0x3
800a47bc:	00d657b3          	srl	a5,a2,a3
800a47c0:	00f585b3          	add	a1,a1,a5
800a47c4:	0005c783          	lbu	a5,0(a1)
800a47c8:	00d787b3          	add	a5,a5,a3
800a47cc:	02000693          	li	a3,32
800a47d0:	40f685b3          	sub	a1,a3,a5
800a47d4:	0cf69063          	bne	a3,a5,800a4894 <__divdi3+0x234>
800a47d8:	40ce07b3          	sub	a5,t3,a2
800a47dc:	00100593          	li	a1,1
800a47e0:	01075313          	srli	t1,a4,0x10
800a47e4:	0267deb3          	divu	t4,a5,t1
800a47e8:	01071613          	slli	a2,a4,0x10
800a47ec:	01065613          	srli	a2,a2,0x10
800a47f0:	01085693          	srli	a3,a6,0x10
800a47f4:	0267f7b3          	remu	a5,a5,t1
800a47f8:	000e8513          	mv	a0,t4
800a47fc:	03d60e33          	mul	t3,a2,t4
800a4800:	01079793          	slli	a5,a5,0x10
800a4804:	00f6e7b3          	or	a5,a3,a5
800a4808:	01c7fe63          	bgeu	a5,t3,800a4824 <__divdi3+0x1c4>
800a480c:	00f707b3          	add	a5,a4,a5
800a4810:	fffe8513          	addi	a0,t4,-1
800a4814:	00e7e863          	bltu	a5,a4,800a4824 <__divdi3+0x1c4>
800a4818:	01c7f663          	bgeu	a5,t3,800a4824 <__divdi3+0x1c4>
800a481c:	ffee8513          	addi	a0,t4,-2
800a4820:	00e787b3          	add	a5,a5,a4
800a4824:	41c787b3          	sub	a5,a5,t3
800a4828:	0267de33          	divu	t3,a5,t1
800a482c:	01081813          	slli	a6,a6,0x10
800a4830:	01085813          	srli	a6,a6,0x10
800a4834:	0267f7b3          	remu	a5,a5,t1
800a4838:	03c606b3          	mul	a3,a2,t3
800a483c:	01079793          	slli	a5,a5,0x10
800a4840:	00f86833          	or	a6,a6,a5
800a4844:	000e0793          	mv	a5,t3
800a4848:	00d87c63          	bgeu	a6,a3,800a4860 <__divdi3+0x200>
800a484c:	01070833          	add	a6,a4,a6
800a4850:	fffe0793          	addi	a5,t3,-1
800a4854:	00e86663          	bltu	a6,a4,800a4860 <__divdi3+0x200>
800a4858:	00d87463          	bgeu	a6,a3,800a4860 <__divdi3+0x200>
800a485c:	ffee0793          	addi	a5,t3,-2
800a4860:	01051513          	slli	a0,a0,0x10
800a4864:	00f56533          	or	a0,a0,a5
800a4868:	00088a63          	beqz	a7,800a487c <__divdi3+0x21c>
800a486c:	00a037b3          	snez	a5,a0
800a4870:	40b005b3          	neg	a1,a1
800a4874:	40f585b3          	sub	a1,a1,a5
800a4878:	40a00533          	neg	a0,a0
800a487c:	00008067          	ret
800a4880:	010007b7          	lui	a5,0x1000
800a4884:	01800693          	li	a3,24
800a4888:	f2f67ae3          	bgeu	a2,a5,800a47bc <__divdi3+0x15c>
800a488c:	01000693          	li	a3,16
800a4890:	f2dff06f          	j	800a47bc <__divdi3+0x15c>
800a4894:	00b61733          	sll	a4,a2,a1
800a4898:	00fe56b3          	srl	a3,t3,a5
800a489c:	01075513          	srli	a0,a4,0x10
800a48a0:	00be1e33          	sll	t3,t3,a1
800a48a4:	00f357b3          	srl	a5,t1,a5
800a48a8:	01c7e7b3          	or	a5,a5,t3
800a48ac:	02a6de33          	divu	t3,a3,a0
800a48b0:	01071613          	slli	a2,a4,0x10
800a48b4:	01065613          	srli	a2,a2,0x10
800a48b8:	00b31833          	sll	a6,t1,a1
800a48bc:	02a6f6b3          	remu	a3,a3,a0
800a48c0:	03c60333          	mul	t1,a2,t3
800a48c4:	01069593          	slli	a1,a3,0x10
800a48c8:	0107d693          	srli	a3,a5,0x10
800a48cc:	00b6e6b3          	or	a3,a3,a1
800a48d0:	000e0593          	mv	a1,t3
800a48d4:	0066fe63          	bgeu	a3,t1,800a48f0 <__divdi3+0x290>
800a48d8:	00d706b3          	add	a3,a4,a3
800a48dc:	fffe0593          	addi	a1,t3,-1
800a48e0:	00e6e863          	bltu	a3,a4,800a48f0 <__divdi3+0x290>
800a48e4:	0066f663          	bgeu	a3,t1,800a48f0 <__divdi3+0x290>
800a48e8:	ffee0593          	addi	a1,t3,-2
800a48ec:	00e686b3          	add	a3,a3,a4
800a48f0:	406686b3          	sub	a3,a3,t1
800a48f4:	02a6d333          	divu	t1,a3,a0
800a48f8:	01079793          	slli	a5,a5,0x10
800a48fc:	0107d793          	srli	a5,a5,0x10
800a4900:	02a6f6b3          	remu	a3,a3,a0
800a4904:	02660633          	mul	a2,a2,t1
800a4908:	01069693          	slli	a3,a3,0x10
800a490c:	00d7e7b3          	or	a5,a5,a3
800a4910:	00030693          	mv	a3,t1
800a4914:	00c7fe63          	bgeu	a5,a2,800a4930 <__divdi3+0x2d0>
800a4918:	00f707b3          	add	a5,a4,a5
800a491c:	fff30693          	addi	a3,t1,-1
800a4920:	00e7e863          	bltu	a5,a4,800a4930 <__divdi3+0x2d0>
800a4924:	00c7f663          	bgeu	a5,a2,800a4930 <__divdi3+0x2d0>
800a4928:	ffe30693          	addi	a3,t1,-2
800a492c:	00e787b3          	add	a5,a5,a4
800a4930:	01059593          	slli	a1,a1,0x10
800a4934:	40c787b3          	sub	a5,a5,a2
800a4938:	00d5e5b3          	or	a1,a1,a3
800a493c:	ea5ff06f          	j	800a47e0 <__divdi3+0x180>
800a4940:	18de6663          	bltu	t3,a3,800a4acc <__divdi3+0x46c>
800a4944:	000107b7          	lui	a5,0x10
800a4948:	04f6f463          	bgeu	a3,a5,800a4990 <__divdi3+0x330>
800a494c:	1006b713          	sltiu	a4,a3,256
800a4950:	00173713          	seqz	a4,a4
800a4954:	00371713          	slli	a4,a4,0x3
800a4958:	800f17b7          	lui	a5,0x800f1
800a495c:	00e6d5b3          	srl	a1,a3,a4
800a4960:	59878793          	addi	a5,a5,1432 # 800f1598 <__clz_tab>
800a4964:	00b787b3          	add	a5,a5,a1
800a4968:	0007c783          	lbu	a5,0(a5)
800a496c:	00e787b3          	add	a5,a5,a4
800a4970:	02000713          	li	a4,32
800a4974:	40f705b3          	sub	a1,a4,a5
800a4978:	02f71663          	bne	a4,a5,800a49a4 <__divdi3+0x344>
800a497c:	00100513          	li	a0,1
800a4980:	efc6e4e3          	bltu	a3,t3,800a4868 <__divdi3+0x208>
800a4984:	00c33533          	sltu	a0,t1,a2
800a4988:	00153513          	seqz	a0,a0
800a498c:	eddff06f          	j	800a4868 <__divdi3+0x208>
800a4990:	010007b7          	lui	a5,0x1000
800a4994:	01800713          	li	a4,24
800a4998:	fcf6f0e3          	bgeu	a3,a5,800a4958 <__divdi3+0x2f8>
800a499c:	01000713          	li	a4,16
800a49a0:	fb9ff06f          	j	800a4958 <__divdi3+0x2f8>
800a49a4:	00f65733          	srl	a4,a2,a5
800a49a8:	00b696b3          	sll	a3,a3,a1
800a49ac:	00d766b3          	or	a3,a4,a3
800a49b0:	00fe5733          	srl	a4,t3,a5
800a49b4:	00be1e33          	sll	t3,t3,a1
800a49b8:	00f357b3          	srl	a5,t1,a5
800a49bc:	01c7e7b3          	or	a5,a5,t3
800a49c0:	0106de13          	srli	t3,a3,0x10
800a49c4:	03c75f33          	divu	t5,a4,t3
800a49c8:	01069813          	slli	a6,a3,0x10
800a49cc:	01085813          	srli	a6,a6,0x10
800a49d0:	00b61633          	sll	a2,a2,a1
800a49d4:	03c77733          	remu	a4,a4,t3
800a49d8:	03e80eb3          	mul	t4,a6,t5
800a49dc:	01071513          	slli	a0,a4,0x10
800a49e0:	0107d713          	srli	a4,a5,0x10
800a49e4:	00a76733          	or	a4,a4,a0
800a49e8:	000f0513          	mv	a0,t5
800a49ec:	01d77e63          	bgeu	a4,t4,800a4a08 <__divdi3+0x3a8>
800a49f0:	00e68733          	add	a4,a3,a4
800a49f4:	ffff0513          	addi	a0,t5,-1
800a49f8:	00d76863          	bltu	a4,a3,800a4a08 <__divdi3+0x3a8>
800a49fc:	01d77663          	bgeu	a4,t4,800a4a08 <__divdi3+0x3a8>
800a4a00:	ffef0513          	addi	a0,t5,-2
800a4a04:	00d70733          	add	a4,a4,a3
800a4a08:	41d70733          	sub	a4,a4,t4
800a4a0c:	03c75eb3          	divu	t4,a4,t3
800a4a10:	01079793          	slli	a5,a5,0x10
800a4a14:	0107d793          	srli	a5,a5,0x10
800a4a18:	03c77733          	remu	a4,a4,t3
800a4a1c:	03d80833          	mul	a6,a6,t4
800a4a20:	01071713          	slli	a4,a4,0x10
800a4a24:	00e7e7b3          	or	a5,a5,a4
800a4a28:	000e8713          	mv	a4,t4
800a4a2c:	0107fe63          	bgeu	a5,a6,800a4a48 <__divdi3+0x3e8>
800a4a30:	00f687b3          	add	a5,a3,a5
800a4a34:	fffe8713          	addi	a4,t4,-1
800a4a38:	00d7e863          	bltu	a5,a3,800a4a48 <__divdi3+0x3e8>
800a4a3c:	0107f663          	bgeu	a5,a6,800a4a48 <__divdi3+0x3e8>
800a4a40:	ffee8713          	addi	a4,t4,-2
800a4a44:	00d787b3          	add	a5,a5,a3
800a4a48:	01051513          	slli	a0,a0,0x10
800a4a4c:	00010eb7          	lui	t4,0x10
800a4a50:	00e56533          	or	a0,a0,a4
800a4a54:	fffe8693          	addi	a3,t4,-1 # ffff <__stack_size+0xf7ff>
800a4a58:	00d57733          	and	a4,a0,a3
800a4a5c:	410787b3          	sub	a5,a5,a6
800a4a60:	00d676b3          	and	a3,a2,a3
800a4a64:	01055813          	srli	a6,a0,0x10
800a4a68:	01065613          	srli	a2,a2,0x10
800a4a6c:	02d70e33          	mul	t3,a4,a3
800a4a70:	02d806b3          	mul	a3,a6,a3
800a4a74:	02c70733          	mul	a4,a4,a2
800a4a78:	02c80833          	mul	a6,a6,a2
800a4a7c:	00d70633          	add	a2,a4,a3
800a4a80:	010e5713          	srli	a4,t3,0x10
800a4a84:	00c70733          	add	a4,a4,a2
800a4a88:	00d77463          	bgeu	a4,a3,800a4a90 <__divdi3+0x430>
800a4a8c:	01d80833          	add	a6,a6,t4
800a4a90:	01075693          	srli	a3,a4,0x10
800a4a94:	010686b3          	add	a3,a3,a6
800a4a98:	02d7e663          	bltu	a5,a3,800a4ac4 <__divdi3+0x464>
800a4a9c:	ced794e3          	bne	a5,a3,800a4784 <__divdi3+0x124>
800a4aa0:	000107b7          	lui	a5,0x10
800a4aa4:	fff78793          	addi	a5,a5,-1 # ffff <__stack_size+0xf7ff>
800a4aa8:	00f77733          	and	a4,a4,a5
800a4aac:	01071713          	slli	a4,a4,0x10
800a4ab0:	00fe7e33          	and	t3,t3,a5
800a4ab4:	00b31333          	sll	t1,t1,a1
800a4ab8:	01c70733          	add	a4,a4,t3
800a4abc:	00000593          	li	a1,0
800a4ac0:	dae374e3          	bgeu	t1,a4,800a4868 <__divdi3+0x208>
800a4ac4:	fff50513          	addi	a0,a0,-1 # ffffff <__heap_size+0xdfffff>
800a4ac8:	cbdff06f          	j	800a4784 <__divdi3+0x124>
800a4acc:	00000593          	li	a1,0
800a4ad0:	00000513          	li	a0,0
800a4ad4:	d95ff06f          	j	800a4868 <__divdi3+0x208>

800a4ad8 <__udivdi3>:
800a4ad8:	00050893          	mv	a7,a0
800a4adc:	00058313          	mv	t1,a1
800a4ae0:	00060713          	mv	a4,a2
800a4ae4:	00050813          	mv	a6,a0
800a4ae8:	00058793          	mv	a5,a1
800a4aec:	28069263          	bnez	a3,800a4d70 <__udivdi3+0x298>
800a4af0:	800f15b7          	lui	a1,0x800f1
800a4af4:	59858593          	addi	a1,a1,1432 # 800f1598 <__clz_tab>
800a4af8:	0ec37663          	bgeu	t1,a2,800a4be4 <__udivdi3+0x10c>
800a4afc:	000106b7          	lui	a3,0x10
800a4b00:	0cd67863          	bgeu	a2,a3,800a4bd0 <__udivdi3+0xf8>
800a4b04:	10063693          	sltiu	a3,a2,256
800a4b08:	0016b693          	seqz	a3,a3
800a4b0c:	00369693          	slli	a3,a3,0x3
800a4b10:	00d65533          	srl	a0,a2,a3
800a4b14:	00a585b3          	add	a1,a1,a0
800a4b18:	0005c583          	lbu	a1,0(a1)
800a4b1c:	02000513          	li	a0,32
800a4b20:	00d586b3          	add	a3,a1,a3
800a4b24:	40d505b3          	sub	a1,a0,a3
800a4b28:	00d50c63          	beq	a0,a3,800a4b40 <__udivdi3+0x68>
800a4b2c:	00b317b3          	sll	a5,t1,a1
800a4b30:	00d8d6b3          	srl	a3,a7,a3
800a4b34:	00b61733          	sll	a4,a2,a1
800a4b38:	00f6e7b3          	or	a5,a3,a5
800a4b3c:	00b89833          	sll	a6,a7,a1
800a4b40:	01075593          	srli	a1,a4,0x10
800a4b44:	02b7d333          	divu	t1,a5,a1
800a4b48:	01071613          	slli	a2,a4,0x10
800a4b4c:	01065613          	srli	a2,a2,0x10
800a4b50:	02b7f7b3          	remu	a5,a5,a1
800a4b54:	00030513          	mv	a0,t1
800a4b58:	026608b3          	mul	a7,a2,t1
800a4b5c:	01079693          	slli	a3,a5,0x10
800a4b60:	01085793          	srli	a5,a6,0x10
800a4b64:	00d7e7b3          	or	a5,a5,a3
800a4b68:	0117fe63          	bgeu	a5,a7,800a4b84 <__udivdi3+0xac>
800a4b6c:	00f707b3          	add	a5,a4,a5
800a4b70:	fff30513          	addi	a0,t1,-1
800a4b74:	00e7e863          	bltu	a5,a4,800a4b84 <__udivdi3+0xac>
800a4b78:	0117f663          	bgeu	a5,a7,800a4b84 <__udivdi3+0xac>
800a4b7c:	ffe30513          	addi	a0,t1,-2
800a4b80:	00e787b3          	add	a5,a5,a4
800a4b84:	411787b3          	sub	a5,a5,a7
800a4b88:	02b7d8b3          	divu	a7,a5,a1
800a4b8c:	01081813          	slli	a6,a6,0x10
800a4b90:	01085813          	srli	a6,a6,0x10
800a4b94:	02b7f7b3          	remu	a5,a5,a1
800a4b98:	031606b3          	mul	a3,a2,a7
800a4b9c:	01079793          	slli	a5,a5,0x10
800a4ba0:	00f86833          	or	a6,a6,a5
800a4ba4:	00088793          	mv	a5,a7
800a4ba8:	00d87c63          	bgeu	a6,a3,800a4bc0 <__udivdi3+0xe8>
800a4bac:	01070833          	add	a6,a4,a6
800a4bb0:	fff88793          	addi	a5,a7,-1
800a4bb4:	00e86663          	bltu	a6,a4,800a4bc0 <__udivdi3+0xe8>
800a4bb8:	00d87463          	bgeu	a6,a3,800a4bc0 <__udivdi3+0xe8>
800a4bbc:	ffe88793          	addi	a5,a7,-2
800a4bc0:	01051513          	slli	a0,a0,0x10
800a4bc4:	00f56533          	or	a0,a0,a5
800a4bc8:	00000593          	li	a1,0
800a4bcc:	00008067          	ret
800a4bd0:	01000537          	lui	a0,0x1000
800a4bd4:	01800693          	li	a3,24
800a4bd8:	f2a67ce3          	bgeu	a2,a0,800a4b10 <__udivdi3+0x38>
800a4bdc:	01000693          	li	a3,16
800a4be0:	f31ff06f          	j	800a4b10 <__udivdi3+0x38>
800a4be4:	00000693          	li	a3,0
800a4be8:	00060c63          	beqz	a2,800a4c00 <__udivdi3+0x128>
800a4bec:	000107b7          	lui	a5,0x10
800a4bf0:	0cf67063          	bgeu	a2,a5,800a4cb0 <__udivdi3+0x1d8>
800a4bf4:	10063693          	sltiu	a3,a2,256
800a4bf8:	0016b693          	seqz	a3,a3
800a4bfc:	00369693          	slli	a3,a3,0x3
800a4c00:	00d657b3          	srl	a5,a2,a3
800a4c04:	00f585b3          	add	a1,a1,a5
800a4c08:	0005c783          	lbu	a5,0(a1)
800a4c0c:	00d787b3          	add	a5,a5,a3
800a4c10:	02000693          	li	a3,32
800a4c14:	40f685b3          	sub	a1,a3,a5
800a4c18:	0af69663          	bne	a3,a5,800a4cc4 <__udivdi3+0x1ec>
800a4c1c:	40c307b3          	sub	a5,t1,a2
800a4c20:	00100593          	li	a1,1
800a4c24:	01075893          	srli	a7,a4,0x10
800a4c28:	0317de33          	divu	t3,a5,a7
800a4c2c:	01071613          	slli	a2,a4,0x10
800a4c30:	01065613          	srli	a2,a2,0x10
800a4c34:	01085693          	srli	a3,a6,0x10
800a4c38:	0317f7b3          	remu	a5,a5,a7
800a4c3c:	000e0513          	mv	a0,t3
800a4c40:	03c60333          	mul	t1,a2,t3
800a4c44:	01079793          	slli	a5,a5,0x10
800a4c48:	00f6e7b3          	or	a5,a3,a5
800a4c4c:	0067fe63          	bgeu	a5,t1,800a4c68 <__udivdi3+0x190>
800a4c50:	00f707b3          	add	a5,a4,a5
800a4c54:	fffe0513          	addi	a0,t3,-1
800a4c58:	00e7e863          	bltu	a5,a4,800a4c68 <__udivdi3+0x190>
800a4c5c:	0067f663          	bgeu	a5,t1,800a4c68 <__udivdi3+0x190>
800a4c60:	ffee0513          	addi	a0,t3,-2
800a4c64:	00e787b3          	add	a5,a5,a4
800a4c68:	406787b3          	sub	a5,a5,t1
800a4c6c:	0317d333          	divu	t1,a5,a7
800a4c70:	01081813          	slli	a6,a6,0x10
800a4c74:	01085813          	srli	a6,a6,0x10
800a4c78:	0317f7b3          	remu	a5,a5,a7
800a4c7c:	026606b3          	mul	a3,a2,t1
800a4c80:	01079793          	slli	a5,a5,0x10
800a4c84:	00f86833          	or	a6,a6,a5
800a4c88:	00030793          	mv	a5,t1
800a4c8c:	00d87c63          	bgeu	a6,a3,800a4ca4 <__udivdi3+0x1cc>
800a4c90:	01070833          	add	a6,a4,a6
800a4c94:	fff30793          	addi	a5,t1,-1
800a4c98:	00e86663          	bltu	a6,a4,800a4ca4 <__udivdi3+0x1cc>
800a4c9c:	00d87463          	bgeu	a6,a3,800a4ca4 <__udivdi3+0x1cc>
800a4ca0:	ffe30793          	addi	a5,t1,-2
800a4ca4:	01051513          	slli	a0,a0,0x10
800a4ca8:	00f56533          	or	a0,a0,a5
800a4cac:	00008067          	ret
800a4cb0:	010007b7          	lui	a5,0x1000
800a4cb4:	01800693          	li	a3,24
800a4cb8:	f4f674e3          	bgeu	a2,a5,800a4c00 <__udivdi3+0x128>
800a4cbc:	01000693          	li	a3,16
800a4cc0:	f41ff06f          	j	800a4c00 <__udivdi3+0x128>
800a4cc4:	00b61733          	sll	a4,a2,a1
800a4cc8:	00f356b3          	srl	a3,t1,a5
800a4ccc:	01075513          	srli	a0,a4,0x10
800a4cd0:	00b31333          	sll	t1,t1,a1
800a4cd4:	00f8d7b3          	srl	a5,a7,a5
800a4cd8:	0067e7b3          	or	a5,a5,t1
800a4cdc:	02a6d333          	divu	t1,a3,a0
800a4ce0:	01071613          	slli	a2,a4,0x10
800a4ce4:	01065613          	srli	a2,a2,0x10
800a4ce8:	00b89833          	sll	a6,a7,a1
800a4cec:	02a6f6b3          	remu	a3,a3,a0
800a4cf0:	026608b3          	mul	a7,a2,t1
800a4cf4:	01069593          	slli	a1,a3,0x10
800a4cf8:	0107d693          	srli	a3,a5,0x10
800a4cfc:	00b6e6b3          	or	a3,a3,a1
800a4d00:	00030593          	mv	a1,t1
800a4d04:	0116fe63          	bgeu	a3,a7,800a4d20 <__udivdi3+0x248>
800a4d08:	00d706b3          	add	a3,a4,a3
800a4d0c:	fff30593          	addi	a1,t1,-1
800a4d10:	00e6e863          	bltu	a3,a4,800a4d20 <__udivdi3+0x248>
800a4d14:	0116f663          	bgeu	a3,a7,800a4d20 <__udivdi3+0x248>
800a4d18:	ffe30593          	addi	a1,t1,-2
800a4d1c:	00e686b3          	add	a3,a3,a4
800a4d20:	411686b3          	sub	a3,a3,a7
800a4d24:	02a6d8b3          	divu	a7,a3,a0
800a4d28:	01079793          	slli	a5,a5,0x10
800a4d2c:	0107d793          	srli	a5,a5,0x10
800a4d30:	02a6f6b3          	remu	a3,a3,a0
800a4d34:	03160633          	mul	a2,a2,a7
800a4d38:	01069693          	slli	a3,a3,0x10
800a4d3c:	00d7e7b3          	or	a5,a5,a3
800a4d40:	00088693          	mv	a3,a7
800a4d44:	00c7fe63          	bgeu	a5,a2,800a4d60 <__udivdi3+0x288>
800a4d48:	00f707b3          	add	a5,a4,a5
800a4d4c:	fff88693          	addi	a3,a7,-1
800a4d50:	00e7e863          	bltu	a5,a4,800a4d60 <__udivdi3+0x288>
800a4d54:	00c7f663          	bgeu	a5,a2,800a4d60 <__udivdi3+0x288>
800a4d58:	ffe88693          	addi	a3,a7,-2
800a4d5c:	00e787b3          	add	a5,a5,a4
800a4d60:	01059593          	slli	a1,a1,0x10
800a4d64:	40c787b3          	sub	a5,a5,a2
800a4d68:	00d5e5b3          	or	a1,a1,a3
800a4d6c:	eb9ff06f          	j	800a4c24 <__udivdi3+0x14c>
800a4d70:	18d5e663          	bltu	a1,a3,800a4efc <__udivdi3+0x424>
800a4d74:	000107b7          	lui	a5,0x10
800a4d78:	04f6f463          	bgeu	a3,a5,800a4dc0 <__udivdi3+0x2e8>
800a4d7c:	1006b713          	sltiu	a4,a3,256
800a4d80:	00173713          	seqz	a4,a4
800a4d84:	00371713          	slli	a4,a4,0x3
800a4d88:	800f17b7          	lui	a5,0x800f1
800a4d8c:	00e6d5b3          	srl	a1,a3,a4
800a4d90:	59878793          	addi	a5,a5,1432 # 800f1598 <__clz_tab>
800a4d94:	00b787b3          	add	a5,a5,a1
800a4d98:	0007c783          	lbu	a5,0(a5)
800a4d9c:	00e787b3          	add	a5,a5,a4
800a4da0:	02000713          	li	a4,32
800a4da4:	40f705b3          	sub	a1,a4,a5
800a4da8:	02f71663          	bne	a4,a5,800a4dd4 <__udivdi3+0x2fc>
800a4dac:	00100513          	li	a0,1
800a4db0:	e066eee3          	bltu	a3,t1,800a4bcc <__udivdi3+0xf4>
800a4db4:	00c8b533          	sltu	a0,a7,a2
800a4db8:	00153513          	seqz	a0,a0
800a4dbc:	00008067          	ret
800a4dc0:	010007b7          	lui	a5,0x1000
800a4dc4:	01800713          	li	a4,24
800a4dc8:	fcf6f0e3          	bgeu	a3,a5,800a4d88 <__udivdi3+0x2b0>
800a4dcc:	01000713          	li	a4,16
800a4dd0:	fb9ff06f          	j	800a4d88 <__udivdi3+0x2b0>
800a4dd4:	00f65733          	srl	a4,a2,a5
800a4dd8:	00b696b3          	sll	a3,a3,a1
800a4ddc:	00d766b3          	or	a3,a4,a3
800a4de0:	00f35733          	srl	a4,t1,a5
800a4de4:	00b31333          	sll	t1,t1,a1
800a4de8:	00f8d7b3          	srl	a5,a7,a5
800a4dec:	0067e7b3          	or	a5,a5,t1
800a4df0:	0106d313          	srli	t1,a3,0x10
800a4df4:	02675eb3          	divu	t4,a4,t1
800a4df8:	01069813          	slli	a6,a3,0x10
800a4dfc:	01085813          	srli	a6,a6,0x10
800a4e00:	00b61633          	sll	a2,a2,a1
800a4e04:	02677733          	remu	a4,a4,t1
800a4e08:	03d80e33          	mul	t3,a6,t4
800a4e0c:	01071513          	slli	a0,a4,0x10
800a4e10:	0107d713          	srli	a4,a5,0x10
800a4e14:	00a76733          	or	a4,a4,a0
800a4e18:	000e8513          	mv	a0,t4
800a4e1c:	01c77e63          	bgeu	a4,t3,800a4e38 <__udivdi3+0x360>
800a4e20:	00e68733          	add	a4,a3,a4
800a4e24:	fffe8513          	addi	a0,t4,-1
800a4e28:	00d76863          	bltu	a4,a3,800a4e38 <__udivdi3+0x360>
800a4e2c:	01c77663          	bgeu	a4,t3,800a4e38 <__udivdi3+0x360>
800a4e30:	ffee8513          	addi	a0,t4,-2
800a4e34:	00d70733          	add	a4,a4,a3
800a4e38:	41c70733          	sub	a4,a4,t3
800a4e3c:	02675e33          	divu	t3,a4,t1
800a4e40:	01079793          	slli	a5,a5,0x10
800a4e44:	0107d793          	srli	a5,a5,0x10
800a4e48:	02677733          	remu	a4,a4,t1
800a4e4c:	03c80833          	mul	a6,a6,t3
800a4e50:	01071713          	slli	a4,a4,0x10
800a4e54:	00e7e7b3          	or	a5,a5,a4
800a4e58:	000e0713          	mv	a4,t3
800a4e5c:	0107fe63          	bgeu	a5,a6,800a4e78 <__udivdi3+0x3a0>
800a4e60:	00f687b3          	add	a5,a3,a5
800a4e64:	fffe0713          	addi	a4,t3,-1
800a4e68:	00d7e863          	bltu	a5,a3,800a4e78 <__udivdi3+0x3a0>
800a4e6c:	0107f663          	bgeu	a5,a6,800a4e78 <__udivdi3+0x3a0>
800a4e70:	ffee0713          	addi	a4,t3,-2
800a4e74:	00d787b3          	add	a5,a5,a3
800a4e78:	01051513          	slli	a0,a0,0x10
800a4e7c:	00010e37          	lui	t3,0x10
800a4e80:	00e56533          	or	a0,a0,a4
800a4e84:	fffe0693          	addi	a3,t3,-1 # ffff <__stack_size+0xf7ff>
800a4e88:	00d57733          	and	a4,a0,a3
800a4e8c:	410787b3          	sub	a5,a5,a6
800a4e90:	00d676b3          	and	a3,a2,a3
800a4e94:	01055813          	srli	a6,a0,0x10
800a4e98:	01065613          	srli	a2,a2,0x10
800a4e9c:	02d70333          	mul	t1,a4,a3
800a4ea0:	02d806b3          	mul	a3,a6,a3
800a4ea4:	02c70733          	mul	a4,a4,a2
800a4ea8:	02c80833          	mul	a6,a6,a2
800a4eac:	00d70633          	add	a2,a4,a3
800a4eb0:	01035713          	srli	a4,t1,0x10
800a4eb4:	00c70733          	add	a4,a4,a2
800a4eb8:	00d77463          	bgeu	a4,a3,800a4ec0 <__udivdi3+0x3e8>
800a4ebc:	01c80833          	add	a6,a6,t3
800a4ec0:	01075693          	srli	a3,a4,0x10
800a4ec4:	010686b3          	add	a3,a3,a6
800a4ec8:	02d7e663          	bltu	a5,a3,800a4ef4 <__udivdi3+0x41c>
800a4ecc:	ced79ee3          	bne	a5,a3,800a4bc8 <__udivdi3+0xf0>
800a4ed0:	000107b7          	lui	a5,0x10
800a4ed4:	fff78793          	addi	a5,a5,-1 # ffff <__stack_size+0xf7ff>
800a4ed8:	00f77733          	and	a4,a4,a5
800a4edc:	01071713          	slli	a4,a4,0x10
800a4ee0:	00f37333          	and	t1,t1,a5
800a4ee4:	00b898b3          	sll	a7,a7,a1
800a4ee8:	00670733          	add	a4,a4,t1
800a4eec:	00000593          	li	a1,0
800a4ef0:	cce8fee3          	bgeu	a7,a4,800a4bcc <__udivdi3+0xf4>
800a4ef4:	fff50513          	addi	a0,a0,-1 # ffffff <__heap_size+0xdfffff>
800a4ef8:	cd1ff06f          	j	800a4bc8 <__udivdi3+0xf0>
800a4efc:	00000593          	li	a1,0
800a4f00:	00000513          	li	a0,0
800a4f04:	00008067          	ret

800a4f08 <__adddf3>:
800a4f08:	00100837          	lui	a6,0x100
800a4f0c:	fff80813          	addi	a6,a6,-1 # fffff <__stack_size+0xff7ff>
800a4f10:	fe010113          	addi	sp,sp,-32
800a4f14:	00b878b3          	and	a7,a6,a1
800a4f18:	0145d713          	srli	a4,a1,0x14
800a4f1c:	01d55793          	srli	a5,a0,0x1d
800a4f20:	00d87833          	and	a6,a6,a3
800a4f24:	00912a23          	sw	s1,20(sp)
800a4f28:	7ff77493          	andi	s1,a4,2047
800a4f2c:	00389713          	slli	a4,a7,0x3
800a4f30:	0146d893          	srli	a7,a3,0x14
800a4f34:	00381813          	slli	a6,a6,0x3
800a4f38:	01212823          	sw	s2,16(sp)
800a4f3c:	00e7e7b3          	or	a5,a5,a4
800a4f40:	7ff8f893          	andi	a7,a7,2047
800a4f44:	01d65713          	srli	a4,a2,0x1d
800a4f48:	00112e23          	sw	ra,28(sp)
800a4f4c:	00812c23          	sw	s0,24(sp)
800a4f50:	01312623          	sw	s3,12(sp)
800a4f54:	01f5d913          	srli	s2,a1,0x1f
800a4f58:	01f6d693          	srli	a3,a3,0x1f
800a4f5c:	01076733          	or	a4,a4,a6
800a4f60:	00351513          	slli	a0,a0,0x3
800a4f64:	00361613          	slli	a2,a2,0x3
800a4f68:	41148833          	sub	a6,s1,a7
800a4f6c:	2ad91a63          	bne	s2,a3,800a5220 <__adddf3+0x318>
800a4f70:	11005c63          	blez	a6,800a5088 <__adddf3+0x180>
800a4f74:	04089063          	bnez	a7,800a4fb4 <__adddf3+0xac>
800a4f78:	00c766b3          	or	a3,a4,a2
800a4f7c:	66068063          	beqz	a3,800a55dc <__adddf3+0x6d4>
800a4f80:	fff80593          	addi	a1,a6,-1
800a4f84:	02059063          	bnez	a1,800a4fa4 <__adddf3+0x9c>
800a4f88:	00c50633          	add	a2,a0,a2
800a4f8c:	00a636b3          	sltu	a3,a2,a0
800a4f90:	00e78733          	add	a4,a5,a4
800a4f94:	00060513          	mv	a0,a2
800a4f98:	00d707b3          	add	a5,a4,a3
800a4f9c:	00100493          	li	s1,1
800a4fa0:	06c0006f          	j	800a500c <__adddf3+0x104>
800a4fa4:	7ff00693          	li	a3,2047
800a4fa8:	02d81063          	bne	a6,a3,800a4fc8 <__adddf3+0xc0>
800a4fac:	7ff00493          	li	s1,2047
800a4fb0:	1f80006f          	j	800a51a8 <__adddf3+0x2a0>
800a4fb4:	7ff00693          	li	a3,2047
800a4fb8:	1ed48863          	beq	s1,a3,800a51a8 <__adddf3+0x2a0>
800a4fbc:	008006b7          	lui	a3,0x800
800a4fc0:	00d76733          	or	a4,a4,a3
800a4fc4:	00080593          	mv	a1,a6
800a4fc8:	03800693          	li	a3,56
800a4fcc:	0ab6c863          	blt	a3,a1,800a507c <__adddf3+0x174>
800a4fd0:	01f00693          	li	a3,31
800a4fd4:	06b6ca63          	blt	a3,a1,800a5048 <__adddf3+0x140>
800a4fd8:	02000813          	li	a6,32
800a4fdc:	40b80833          	sub	a6,a6,a1
800a4fe0:	010716b3          	sll	a3,a4,a6
800a4fe4:	00b658b3          	srl	a7,a2,a1
800a4fe8:	01061833          	sll	a6,a2,a6
800a4fec:	0116e6b3          	or	a3,a3,a7
800a4ff0:	01003833          	snez	a6,a6
800a4ff4:	0106e6b3          	or	a3,a3,a6
800a4ff8:	00b755b3          	srl	a1,a4,a1
800a4ffc:	00a68533          	add	a0,a3,a0
800a5000:	00f585b3          	add	a1,a1,a5
800a5004:	00d536b3          	sltu	a3,a0,a3
800a5008:	00d587b3          	add	a5,a1,a3
800a500c:	00879713          	slli	a4,a5,0x8
800a5010:	18075c63          	bgez	a4,800a51a8 <__adddf3+0x2a0>
800a5014:	00148493          	addi	s1,s1,1
800a5018:	7ff00713          	li	a4,2047
800a501c:	5ae48a63          	beq	s1,a4,800a55d0 <__adddf3+0x6c8>
800a5020:	ff800737          	lui	a4,0xff800
800a5024:	fff70713          	addi	a4,a4,-1 # ff7fffff <__stack_top+0x7effe7ff>
800a5028:	00e7f733          	and	a4,a5,a4
800a502c:	00155793          	srli	a5,a0,0x1
800a5030:	00157513          	andi	a0,a0,1
800a5034:	00a7e7b3          	or	a5,a5,a0
800a5038:	01f71513          	slli	a0,a4,0x1f
800a503c:	00f56533          	or	a0,a0,a5
800a5040:	00175793          	srli	a5,a4,0x1
800a5044:	1640006f          	j	800a51a8 <__adddf3+0x2a0>
800a5048:	fe058693          	addi	a3,a1,-32
800a504c:	02000893          	li	a7,32
800a5050:	00d756b3          	srl	a3,a4,a3
800a5054:	00000813          	li	a6,0
800a5058:	01158863          	beq	a1,a7,800a5068 <__adddf3+0x160>
800a505c:	04000813          	li	a6,64
800a5060:	40b80833          	sub	a6,a6,a1
800a5064:	01071833          	sll	a6,a4,a6
800a5068:	00c86833          	or	a6,a6,a2
800a506c:	01003833          	snez	a6,a6
800a5070:	0106e6b3          	or	a3,a3,a6
800a5074:	00000593          	li	a1,0
800a5078:	f85ff06f          	j	800a4ffc <__adddf3+0xf4>
800a507c:	00c766b3          	or	a3,a4,a2
800a5080:	00d036b3          	snez	a3,a3
800a5084:	ff1ff06f          	j	800a5074 <__adddf3+0x16c>
800a5088:	0c080a63          	beqz	a6,800a515c <__adddf3+0x254>
800a508c:	409886b3          	sub	a3,a7,s1
800a5090:	02049463          	bnez	s1,800a50b8 <__adddf3+0x1b0>
800a5094:	00a7e5b3          	or	a1,a5,a0
800a5098:	50058e63          	beqz	a1,800a55b4 <__adddf3+0x6ac>
800a509c:	fff68593          	addi	a1,a3,-1 # 7fffff <__heap_size+0x5fffff>
800a50a0:	ee0584e3          	beqz	a1,800a4f88 <__adddf3+0x80>
800a50a4:	7ff00813          	li	a6,2047
800a50a8:	03069263          	bne	a3,a6,800a50cc <__adddf3+0x1c4>
800a50ac:	00070793          	mv	a5,a4
800a50b0:	00060513          	mv	a0,a2
800a50b4:	ef9ff06f          	j	800a4fac <__adddf3+0xa4>
800a50b8:	7ff00593          	li	a1,2047
800a50bc:	feb888e3          	beq	a7,a1,800a50ac <__adddf3+0x1a4>
800a50c0:	008005b7          	lui	a1,0x800
800a50c4:	00b7e7b3          	or	a5,a5,a1
800a50c8:	00068593          	mv	a1,a3
800a50cc:	03800693          	li	a3,56
800a50d0:	08b6c063          	blt	a3,a1,800a5150 <__adddf3+0x248>
800a50d4:	01f00693          	li	a3,31
800a50d8:	04b6c263          	blt	a3,a1,800a511c <__adddf3+0x214>
800a50dc:	02000813          	li	a6,32
800a50e0:	40b80833          	sub	a6,a6,a1
800a50e4:	010796b3          	sll	a3,a5,a6
800a50e8:	00b55333          	srl	t1,a0,a1
800a50ec:	01051833          	sll	a6,a0,a6
800a50f0:	0066e6b3          	or	a3,a3,t1
800a50f4:	01003833          	snez	a6,a6
800a50f8:	0106e6b3          	or	a3,a3,a6
800a50fc:	00b7d5b3          	srl	a1,a5,a1
800a5100:	00c68633          	add	a2,a3,a2
800a5104:	00e585b3          	add	a1,a1,a4
800a5108:	00d636b3          	sltu	a3,a2,a3
800a510c:	00060513          	mv	a0,a2
800a5110:	00d587b3          	add	a5,a1,a3
800a5114:	00088493          	mv	s1,a7
800a5118:	ef5ff06f          	j	800a500c <__adddf3+0x104>
800a511c:	fe058693          	addi	a3,a1,-32 # 7fffe0 <__heap_size+0x5fffe0>
800a5120:	02000313          	li	t1,32
800a5124:	00d7d6b3          	srl	a3,a5,a3
800a5128:	00000813          	li	a6,0
800a512c:	00658863          	beq	a1,t1,800a513c <__adddf3+0x234>
800a5130:	04000813          	li	a6,64
800a5134:	40b80833          	sub	a6,a6,a1
800a5138:	01079833          	sll	a6,a5,a6
800a513c:	00a86833          	or	a6,a6,a0
800a5140:	01003833          	snez	a6,a6
800a5144:	0106e6b3          	or	a3,a3,a6
800a5148:	00000593          	li	a1,0
800a514c:	fb5ff06f          	j	800a5100 <__adddf3+0x1f8>
800a5150:	00a7e6b3          	or	a3,a5,a0
800a5154:	00d036b3          	snez	a3,a3
800a5158:	ff1ff06f          	j	800a5148 <__adddf3+0x240>
800a515c:	00148693          	addi	a3,s1,1
800a5160:	7fe6f593          	andi	a1,a3,2046
800a5164:	08059663          	bnez	a1,800a51f0 <__adddf3+0x2e8>
800a5168:	00a7e6b3          	or	a3,a5,a0
800a516c:	06049263          	bnez	s1,800a51d0 <__adddf3+0x2c8>
800a5170:	44068863          	beqz	a3,800a55c0 <__adddf3+0x6b8>
800a5174:	00c766b3          	or	a3,a4,a2
800a5178:	02068863          	beqz	a3,800a51a8 <__adddf3+0x2a0>
800a517c:	00c50633          	add	a2,a0,a2
800a5180:	00a636b3          	sltu	a3,a2,a0
800a5184:	00e78733          	add	a4,a5,a4
800a5188:	00d707b3          	add	a5,a4,a3
800a518c:	00879713          	slli	a4,a5,0x8
800a5190:	00060513          	mv	a0,a2
800a5194:	00075a63          	bgez	a4,800a51a8 <__adddf3+0x2a0>
800a5198:	ff800737          	lui	a4,0xff800
800a519c:	fff70713          	addi	a4,a4,-1 # ff7fffff <__stack_top+0x7effe7ff>
800a51a0:	00e7f7b3          	and	a5,a5,a4
800a51a4:	00100493          	li	s1,1
800a51a8:	00757713          	andi	a4,a0,7
800a51ac:	44070863          	beqz	a4,800a55fc <__adddf3+0x6f4>
800a51b0:	00f57713          	andi	a4,a0,15
800a51b4:	00400693          	li	a3,4
800a51b8:	44d70263          	beq	a4,a3,800a55fc <__adddf3+0x6f4>
800a51bc:	00450713          	addi	a4,a0,4
800a51c0:	00a736b3          	sltu	a3,a4,a0
800a51c4:	00d787b3          	add	a5,a5,a3
800a51c8:	00070513          	mv	a0,a4
800a51cc:	4300006f          	j	800a55fc <__adddf3+0x6f4>
800a51d0:	ec068ee3          	beqz	a3,800a50ac <__adddf3+0x1a4>
800a51d4:	00c76633          	or	a2,a4,a2
800a51d8:	dc060ae3          	beqz	a2,800a4fac <__adddf3+0xa4>
800a51dc:	00000913          	li	s2,0
800a51e0:	004007b7          	lui	a5,0x400
800a51e4:	00000513          	li	a0,0
800a51e8:	7ff00493          	li	s1,2047
800a51ec:	4100006f          	j	800a55fc <__adddf3+0x6f4>
800a51f0:	7ff00593          	li	a1,2047
800a51f4:	3cb68c63          	beq	a3,a1,800a55cc <__adddf3+0x6c4>
800a51f8:	00c50633          	add	a2,a0,a2
800a51fc:	00a63533          	sltu	a0,a2,a0
800a5200:	00e78733          	add	a4,a5,a4
800a5204:	00a70733          	add	a4,a4,a0
800a5208:	01f71513          	slli	a0,a4,0x1f
800a520c:	00165613          	srli	a2,a2,0x1
800a5210:	00c56533          	or	a0,a0,a2
800a5214:	00175793          	srli	a5,a4,0x1
800a5218:	00068493          	mv	s1,a3
800a521c:	f8dff06f          	j	800a51a8 <__adddf3+0x2a0>
800a5220:	0f005c63          	blez	a6,800a5318 <__adddf3+0x410>
800a5224:	08089e63          	bnez	a7,800a52c0 <__adddf3+0x3b8>
800a5228:	00c766b3          	or	a3,a4,a2
800a522c:	3a068863          	beqz	a3,800a55dc <__adddf3+0x6d4>
800a5230:	fff80693          	addi	a3,a6,-1
800a5234:	02069063          	bnez	a3,800a5254 <__adddf3+0x34c>
800a5238:	40c50633          	sub	a2,a0,a2
800a523c:	00c536b3          	sltu	a3,a0,a2
800a5240:	40e78733          	sub	a4,a5,a4
800a5244:	00060513          	mv	a0,a2
800a5248:	40d707b3          	sub	a5,a4,a3
800a524c:	00100493          	li	s1,1
800a5250:	0540006f          	j	800a52a4 <__adddf3+0x39c>
800a5254:	7ff00593          	li	a1,2047
800a5258:	d4b80ae3          	beq	a6,a1,800a4fac <__adddf3+0xa4>
800a525c:	03800593          	li	a1,56
800a5260:	0ad5c663          	blt	a1,a3,800a530c <__adddf3+0x404>
800a5264:	01f00593          	li	a1,31
800a5268:	06d5c863          	blt	a1,a3,800a52d8 <__adddf3+0x3d0>
800a526c:	02000813          	li	a6,32
800a5270:	40d80833          	sub	a6,a6,a3
800a5274:	00d658b3          	srl	a7,a2,a3
800a5278:	010715b3          	sll	a1,a4,a6
800a527c:	01061833          	sll	a6,a2,a6
800a5280:	0115e5b3          	or	a1,a1,a7
800a5284:	01003833          	snez	a6,a6
800a5288:	0105e633          	or	a2,a1,a6
800a528c:	00d756b3          	srl	a3,a4,a3
800a5290:	40c50633          	sub	a2,a0,a2
800a5294:	00c53733          	sltu	a4,a0,a2
800a5298:	40d786b3          	sub	a3,a5,a3
800a529c:	00060513          	mv	a0,a2
800a52a0:	40e687b3          	sub	a5,a3,a4
800a52a4:	00879713          	slli	a4,a5,0x8
800a52a8:	f00750e3          	bgez	a4,800a51a8 <__adddf3+0x2a0>
800a52ac:	00800437          	lui	s0,0x800
800a52b0:	fff40413          	addi	s0,s0,-1 # 7fffff <__heap_size+0x5fffff>
800a52b4:	0087f433          	and	s0,a5,s0
800a52b8:	00050993          	mv	s3,a0
800a52bc:	2100006f          	j	800a54cc <__adddf3+0x5c4>
800a52c0:	7ff00693          	li	a3,2047
800a52c4:	eed482e3          	beq	s1,a3,800a51a8 <__adddf3+0x2a0>
800a52c8:	008006b7          	lui	a3,0x800
800a52cc:	00d76733          	or	a4,a4,a3
800a52d0:	00080693          	mv	a3,a6
800a52d4:	f89ff06f          	j	800a525c <__adddf3+0x354>
800a52d8:	fe068593          	addi	a1,a3,-32 # 7fffe0 <__heap_size+0x5fffe0>
800a52dc:	02000893          	li	a7,32
800a52e0:	00b755b3          	srl	a1,a4,a1
800a52e4:	00000813          	li	a6,0
800a52e8:	01168863          	beq	a3,a7,800a52f8 <__adddf3+0x3f0>
800a52ec:	04000813          	li	a6,64
800a52f0:	40d80833          	sub	a6,a6,a3
800a52f4:	01071833          	sll	a6,a4,a6
800a52f8:	00c86833          	or	a6,a6,a2
800a52fc:	01003833          	snez	a6,a6
800a5300:	0105e633          	or	a2,a1,a6
800a5304:	00000693          	li	a3,0
800a5308:	f89ff06f          	j	800a5290 <__adddf3+0x388>
800a530c:	00c76633          	or	a2,a4,a2
800a5310:	00c03633          	snez	a2,a2
800a5314:	ff1ff06f          	j	800a5304 <__adddf3+0x3fc>
800a5318:	0e080863          	beqz	a6,800a5408 <__adddf3+0x500>
800a531c:	40988833          	sub	a6,a7,s1
800a5320:	04049263          	bnez	s1,800a5364 <__adddf3+0x45c>
800a5324:	00a7e5b3          	or	a1,a5,a0
800a5328:	2a058e63          	beqz	a1,800a55e4 <__adddf3+0x6dc>
800a532c:	fff80593          	addi	a1,a6,-1
800a5330:	00059e63          	bnez	a1,800a534c <__adddf3+0x444>
800a5334:	40a60533          	sub	a0,a2,a0
800a5338:	40f70733          	sub	a4,a4,a5
800a533c:	00a63633          	sltu	a2,a2,a0
800a5340:	40c707b3          	sub	a5,a4,a2
800a5344:	00068913          	mv	s2,a3
800a5348:	f05ff06f          	j	800a524c <__adddf3+0x344>
800a534c:	7ff00313          	li	t1,2047
800a5350:	02681463          	bne	a6,t1,800a5378 <__adddf3+0x470>
800a5354:	00070793          	mv	a5,a4
800a5358:	00060513          	mv	a0,a2
800a535c:	7ff00493          	li	s1,2047
800a5360:	0d00006f          	j	800a5430 <__adddf3+0x528>
800a5364:	7ff00593          	li	a1,2047
800a5368:	feb886e3          	beq	a7,a1,800a5354 <__adddf3+0x44c>
800a536c:	008005b7          	lui	a1,0x800
800a5370:	00b7e7b3          	or	a5,a5,a1
800a5374:	00080593          	mv	a1,a6
800a5378:	03800813          	li	a6,56
800a537c:	08b84063          	blt	a6,a1,800a53fc <__adddf3+0x4f4>
800a5380:	01f00813          	li	a6,31
800a5384:	04b84263          	blt	a6,a1,800a53c8 <__adddf3+0x4c0>
800a5388:	02000313          	li	t1,32
800a538c:	40b30333          	sub	t1,t1,a1
800a5390:	00b55e33          	srl	t3,a0,a1
800a5394:	00679833          	sll	a6,a5,t1
800a5398:	00651333          	sll	t1,a0,t1
800a539c:	01c86833          	or	a6,a6,t3
800a53a0:	00603333          	snez	t1,t1
800a53a4:	00686533          	or	a0,a6,t1
800a53a8:	00b7d5b3          	srl	a1,a5,a1
800a53ac:	40a60533          	sub	a0,a2,a0
800a53b0:	40b705b3          	sub	a1,a4,a1
800a53b4:	00a63633          	sltu	a2,a2,a0
800a53b8:	40c587b3          	sub	a5,a1,a2
800a53bc:	00088493          	mv	s1,a7
800a53c0:	00068913          	mv	s2,a3
800a53c4:	ee1ff06f          	j	800a52a4 <__adddf3+0x39c>
800a53c8:	fe058813          	addi	a6,a1,-32 # 7fffe0 <__heap_size+0x5fffe0>
800a53cc:	02000e13          	li	t3,32
800a53d0:	0107d833          	srl	a6,a5,a6
800a53d4:	00000313          	li	t1,0
800a53d8:	01c58863          	beq	a1,t3,800a53e8 <__adddf3+0x4e0>
800a53dc:	04000313          	li	t1,64
800a53e0:	40b30333          	sub	t1,t1,a1
800a53e4:	00679333          	sll	t1,a5,t1
800a53e8:	00a36333          	or	t1,t1,a0
800a53ec:	00603333          	snez	t1,t1
800a53f0:	00686533          	or	a0,a6,t1
800a53f4:	00000593          	li	a1,0
800a53f8:	fb5ff06f          	j	800a53ac <__adddf3+0x4a4>
800a53fc:	00a7e533          	or	a0,a5,a0
800a5400:	00a03533          	snez	a0,a0
800a5404:	ff1ff06f          	j	800a53f4 <__adddf3+0x4ec>
800a5408:	00148593          	addi	a1,s1,1
800a540c:	7fe5f593          	andi	a1,a1,2046
800a5410:	08059663          	bnez	a1,800a549c <__adddf3+0x594>
800a5414:	00a7e833          	or	a6,a5,a0
800a5418:	00c765b3          	or	a1,a4,a2
800a541c:	06049063          	bnez	s1,800a547c <__adddf3+0x574>
800a5420:	00081c63          	bnez	a6,800a5438 <__adddf3+0x530>
800a5424:	10058e63          	beqz	a1,800a5540 <__adddf3+0x638>
800a5428:	00070793          	mv	a5,a4
800a542c:	00060513          	mv	a0,a2
800a5430:	00068913          	mv	s2,a3
800a5434:	d75ff06f          	j	800a51a8 <__adddf3+0x2a0>
800a5438:	d60588e3          	beqz	a1,800a51a8 <__adddf3+0x2a0>
800a543c:	40c50833          	sub	a6,a0,a2
800a5440:	010538b3          	sltu	a7,a0,a6
800a5444:	40e785b3          	sub	a1,a5,a4
800a5448:	411585b3          	sub	a1,a1,a7
800a544c:	00859893          	slli	a7,a1,0x8
800a5450:	0008dc63          	bgez	a7,800a5468 <__adddf3+0x560>
800a5454:	40a60533          	sub	a0,a2,a0
800a5458:	40f70733          	sub	a4,a4,a5
800a545c:	00a63633          	sltu	a2,a2,a0
800a5460:	40c707b3          	sub	a5,a4,a2
800a5464:	fcdff06f          	j	800a5430 <__adddf3+0x528>
800a5468:	00b86533          	or	a0,a6,a1
800a546c:	18050463          	beqz	a0,800a55f4 <__adddf3+0x6ec>
800a5470:	00058793          	mv	a5,a1
800a5474:	00080513          	mv	a0,a6
800a5478:	d31ff06f          	j	800a51a8 <__adddf3+0x2a0>
800a547c:	00081c63          	bnez	a6,800a5494 <__adddf3+0x58c>
800a5480:	d4058ee3          	beqz	a1,800a51dc <__adddf3+0x2d4>
800a5484:	00070793          	mv	a5,a4
800a5488:	00060513          	mv	a0,a2
800a548c:	00068913          	mv	s2,a3
800a5490:	b1dff06f          	j	800a4fac <__adddf3+0xa4>
800a5494:	b0058ce3          	beqz	a1,800a4fac <__adddf3+0xa4>
800a5498:	d45ff06f          	j	800a51dc <__adddf3+0x2d4>
800a549c:	40c505b3          	sub	a1,a0,a2
800a54a0:	00b53833          	sltu	a6,a0,a1
800a54a4:	40e78433          	sub	s0,a5,a4
800a54a8:	41040433          	sub	s0,s0,a6
800a54ac:	00841813          	slli	a6,s0,0x8
800a54b0:	00058993          	mv	s3,a1
800a54b4:	08085063          	bgez	a6,800a5534 <__adddf3+0x62c>
800a54b8:	40a609b3          	sub	s3,a2,a0
800a54bc:	40f70433          	sub	s0,a4,a5
800a54c0:	01363633          	sltu	a2,a2,s3
800a54c4:	40c40433          	sub	s0,s0,a2
800a54c8:	00068913          	mv	s2,a3
800a54cc:	06040e63          	beqz	s0,800a5548 <__adddf3+0x640>
800a54d0:	00040513          	mv	a0,s0
800a54d4:	4e9020ef          	jal	800a81bc <__clzsi2>
800a54d8:	ff850693          	addi	a3,a0,-8
800a54dc:	02000793          	li	a5,32
800a54e0:	40d787b3          	sub	a5,a5,a3
800a54e4:	00d41433          	sll	s0,s0,a3
800a54e8:	00f9d7b3          	srl	a5,s3,a5
800a54ec:	0087e7b3          	or	a5,a5,s0
800a54f0:	00d99433          	sll	s0,s3,a3
800a54f4:	0a96c463          	blt	a3,s1,800a559c <__adddf3+0x694>
800a54f8:	409686b3          	sub	a3,a3,s1
800a54fc:	00168613          	addi	a2,a3,1
800a5500:	01f00713          	li	a4,31
800a5504:	06c74263          	blt	a4,a2,800a5568 <__adddf3+0x660>
800a5508:	02000713          	li	a4,32
800a550c:	40c70733          	sub	a4,a4,a2
800a5510:	00e79533          	sll	a0,a5,a4
800a5514:	00c456b3          	srl	a3,s0,a2
800a5518:	00e41733          	sll	a4,s0,a4
800a551c:	00d56533          	or	a0,a0,a3
800a5520:	00e03733          	snez	a4,a4
800a5524:	00e56533          	or	a0,a0,a4
800a5528:	00c7d7b3          	srl	a5,a5,a2
800a552c:	00000493          	li	s1,0
800a5530:	c79ff06f          	j	800a51a8 <__adddf3+0x2a0>
800a5534:	0085e5b3          	or	a1,a1,s0
800a5538:	f8059ae3          	bnez	a1,800a54cc <__adddf3+0x5c4>
800a553c:	00000493          	li	s1,0
800a5540:	00000913          	li	s2,0
800a5544:	08c0006f          	j	800a55d0 <__adddf3+0x6c8>
800a5548:	00098513          	mv	a0,s3
800a554c:	471020ef          	jal	800a81bc <__clzsi2>
800a5550:	01850693          	addi	a3,a0,24
800a5554:	01f00793          	li	a5,31
800a5558:	f8d7d2e3          	bge	a5,a3,800a54dc <__adddf3+0x5d4>
800a555c:	ff850793          	addi	a5,a0,-8
800a5560:	00f997b3          	sll	a5,s3,a5
800a5564:	f91ff06f          	j	800a54f4 <__adddf3+0x5ec>
800a5568:	fe168693          	addi	a3,a3,-31
800a556c:	00d7d533          	srl	a0,a5,a3
800a5570:	02000693          	li	a3,32
800a5574:	00000713          	li	a4,0
800a5578:	00d60863          	beq	a2,a3,800a5588 <__adddf3+0x680>
800a557c:	04000713          	li	a4,64
800a5580:	40c70733          	sub	a4,a4,a2
800a5584:	00e79733          	sll	a4,a5,a4
800a5588:	00e46733          	or	a4,s0,a4
800a558c:	00e03733          	snez	a4,a4
800a5590:	00e56533          	or	a0,a0,a4
800a5594:	00000793          	li	a5,0
800a5598:	f95ff06f          	j	800a552c <__adddf3+0x624>
800a559c:	ff800737          	lui	a4,0xff800
800a55a0:	fff70713          	addi	a4,a4,-1 # ff7fffff <__stack_top+0x7effe7ff>
800a55a4:	40d484b3          	sub	s1,s1,a3
800a55a8:	00e7f7b3          	and	a5,a5,a4
800a55ac:	00040513          	mv	a0,s0
800a55b0:	bf9ff06f          	j	800a51a8 <__adddf3+0x2a0>
800a55b4:	00070793          	mv	a5,a4
800a55b8:	00060513          	mv	a0,a2
800a55bc:	c5dff06f          	j	800a5218 <__adddf3+0x310>
800a55c0:	00070793          	mv	a5,a4
800a55c4:	00060513          	mv	a0,a2
800a55c8:	be1ff06f          	j	800a51a8 <__adddf3+0x2a0>
800a55cc:	7ff00493          	li	s1,2047
800a55d0:	00000793          	li	a5,0
800a55d4:	00000513          	li	a0,0
800a55d8:	0240006f          	j	800a55fc <__adddf3+0x6f4>
800a55dc:	00080493          	mv	s1,a6
800a55e0:	bc9ff06f          	j	800a51a8 <__adddf3+0x2a0>
800a55e4:	00070793          	mv	a5,a4
800a55e8:	00060513          	mv	a0,a2
800a55ec:	00080493          	mv	s1,a6
800a55f0:	e41ff06f          	j	800a5430 <__adddf3+0x528>
800a55f4:	00000793          	li	a5,0
800a55f8:	00000913          	li	s2,0
800a55fc:	00879713          	slli	a4,a5,0x8
800a5600:	00075e63          	bgez	a4,800a561c <__adddf3+0x714>
800a5604:	00148493          	addi	s1,s1,1
800a5608:	7ff00713          	li	a4,2047
800a560c:	08e48263          	beq	s1,a4,800a5690 <__adddf3+0x788>
800a5610:	ff800737          	lui	a4,0xff800
800a5614:	fff70713          	addi	a4,a4,-1 # ff7fffff <__stack_top+0x7effe7ff>
800a5618:	00e7f7b3          	and	a5,a5,a4
800a561c:	01d79693          	slli	a3,a5,0x1d
800a5620:	00355513          	srli	a0,a0,0x3
800a5624:	7ff00713          	li	a4,2047
800a5628:	00a6e6b3          	or	a3,a3,a0
800a562c:	0037d793          	srli	a5,a5,0x3
800a5630:	00e49e63          	bne	s1,a4,800a564c <__adddf3+0x744>
800a5634:	00f6e6b3          	or	a3,a3,a5
800a5638:	00000793          	li	a5,0
800a563c:	00068863          	beqz	a3,800a564c <__adddf3+0x744>
800a5640:	000807b7          	lui	a5,0x80
800a5644:	00000693          	li	a3,0
800a5648:	00000913          	li	s2,0
800a564c:	01449713          	slli	a4,s1,0x14
800a5650:	7ff00637          	lui	a2,0x7ff00
800a5654:	00c79793          	slli	a5,a5,0xc
800a5658:	00c77733          	and	a4,a4,a2
800a565c:	01c12083          	lw	ra,28(sp)
800a5660:	01812403          	lw	s0,24(sp)
800a5664:	00c7d793          	srli	a5,a5,0xc
800a5668:	00f767b3          	or	a5,a4,a5
800a566c:	01f91713          	slli	a4,s2,0x1f
800a5670:	00e7e633          	or	a2,a5,a4
800a5674:	01412483          	lw	s1,20(sp)
800a5678:	01012903          	lw	s2,16(sp)
800a567c:	00c12983          	lw	s3,12(sp)
800a5680:	00068513          	mv	a0,a3
800a5684:	00060593          	mv	a1,a2
800a5688:	02010113          	addi	sp,sp,32
800a568c:	00008067          	ret
800a5690:	00000793          	li	a5,0
800a5694:	00000513          	li	a0,0
800a5698:	f85ff06f          	j	800a561c <__adddf3+0x714>

800a569c <__divdf3>:
800a569c:	fd010113          	addi	sp,sp,-48
800a56a0:	0145d813          	srli	a6,a1,0x14
800a56a4:	02912223          	sw	s1,36(sp)
800a56a8:	03212023          	sw	s2,32(sp)
800a56ac:	01312e23          	sw	s3,28(sp)
800a56b0:	01612823          	sw	s6,16(sp)
800a56b4:	01712623          	sw	s7,12(sp)
800a56b8:	00c59493          	slli	s1,a1,0xc
800a56bc:	02112623          	sw	ra,44(sp)
800a56c0:	02812423          	sw	s0,40(sp)
800a56c4:	01412c23          	sw	s4,24(sp)
800a56c8:	01512a23          	sw	s5,20(sp)
800a56cc:	7ff87813          	andi	a6,a6,2047
800a56d0:	00050b13          	mv	s6,a0
800a56d4:	00060b93          	mv	s7,a2
800a56d8:	00068913          	mv	s2,a3
800a56dc:	00c4d493          	srli	s1,s1,0xc
800a56e0:	01f5d993          	srli	s3,a1,0x1f
800a56e4:	0a080063          	beqz	a6,800a5784 <__divdf3+0xe8>
800a56e8:	7ff00793          	li	a5,2047
800a56ec:	10f80063          	beq	a6,a5,800a57ec <__divdf3+0x150>
800a56f0:	01d55a13          	srli	s4,a0,0x1d
800a56f4:	00349493          	slli	s1,s1,0x3
800a56f8:	009a6a33          	or	s4,s4,s1
800a56fc:	008007b7          	lui	a5,0x800
800a5700:	00fa6a33          	or	s4,s4,a5
800a5704:	00351413          	slli	s0,a0,0x3
800a5708:	c0180a93          	addi	s5,a6,-1023
800a570c:	00000b13          	li	s6,0
800a5710:	01495713          	srli	a4,s2,0x14
800a5714:	00c91493          	slli	s1,s2,0xc
800a5718:	7ff77713          	andi	a4,a4,2047
800a571c:	00c4d493          	srli	s1,s1,0xc
800a5720:	01f95913          	srli	s2,s2,0x1f
800a5724:	10070263          	beqz	a4,800a5828 <__divdf3+0x18c>
800a5728:	7ff00793          	li	a5,2047
800a572c:	16f70663          	beq	a4,a5,800a5898 <__divdf3+0x1fc>
800a5730:	00349493          	slli	s1,s1,0x3
800a5734:	01dbd793          	srli	a5,s7,0x1d
800a5738:	0097e7b3          	or	a5,a5,s1
800a573c:	008004b7          	lui	s1,0x800
800a5740:	0097e4b3          	or	s1,a5,s1
800a5744:	003b9f13          	slli	t5,s7,0x3
800a5748:	c0170713          	addi	a4,a4,-1023
800a574c:	00000793          	li	a5,0
800a5750:	40ea8833          	sub	a6,s5,a4
800a5754:	002b1713          	slli	a4,s6,0x2
800a5758:	00f76733          	or	a4,a4,a5
800a575c:	fff70713          	addi	a4,a4,-1
800a5760:	00e00693          	li	a3,14
800a5764:	0129c633          	xor	a2,s3,s2
800a5768:	16e6e463          	bltu	a3,a4,800a58d0 <__divdf3+0x234>
800a576c:	800f16b7          	lui	a3,0x800f1
800a5770:	00271713          	slli	a4,a4,0x2
800a5774:	52068693          	addi	a3,a3,1312 # 800f1520 <__clzsi2+0x49364>
800a5778:	00d70733          	add	a4,a4,a3
800a577c:	00072703          	lw	a4,0(a4)
800a5780:	00070067          	jr	a4
800a5784:	00a4ea33          	or	s4,s1,a0
800a5788:	060a0e63          	beqz	s4,800a5804 <__divdf3+0x168>
800a578c:	02048e63          	beqz	s1,800a57c8 <__divdf3+0x12c>
800a5790:	00048513          	mv	a0,s1
800a5794:	229020ef          	jal	800a81bc <__clzsi2>
800a5798:	ff550793          	addi	a5,a0,-11
800a579c:	01d00a13          	li	s4,29
800a57a0:	ff850713          	addi	a4,a0,-8
800a57a4:	40fa0a33          	sub	s4,s4,a5
800a57a8:	00e494b3          	sll	s1,s1,a4
800a57ac:	014b5a33          	srl	s4,s6,s4
800a57b0:	009a6a33          	or	s4,s4,s1
800a57b4:	00eb14b3          	sll	s1,s6,a4
800a57b8:	c0d00813          	li	a6,-1011
800a57bc:	40a80ab3          	sub	s5,a6,a0
800a57c0:	00048413          	mv	s0,s1
800a57c4:	f49ff06f          	j	800a570c <__divdf3+0x70>
800a57c8:	1f5020ef          	jal	800a81bc <__clzsi2>
800a57cc:	00050a13          	mv	s4,a0
800a57d0:	015a0793          	addi	a5,s4,21
800a57d4:	01c00713          	li	a4,28
800a57d8:	02050513          	addi	a0,a0,32
800a57dc:	fcf750e3          	bge	a4,a5,800a579c <__divdf3+0x100>
800a57e0:	ff8a0a13          	addi	s4,s4,-8
800a57e4:	014b1a33          	sll	s4,s6,s4
800a57e8:	fd1ff06f          	j	800a57b8 <__divdf3+0x11c>
800a57ec:	00a4ea33          	or	s4,s1,a0
800a57f0:	020a1263          	bnez	s4,800a5814 <__divdf3+0x178>
800a57f4:	00000413          	li	s0,0
800a57f8:	7ff00a93          	li	s5,2047
800a57fc:	00200b13          	li	s6,2
800a5800:	f11ff06f          	j	800a5710 <__divdf3+0x74>
800a5804:	00000413          	li	s0,0
800a5808:	00000a93          	li	s5,0
800a580c:	00100b13          	li	s6,1
800a5810:	f01ff06f          	j	800a5710 <__divdf3+0x74>
800a5814:	00050413          	mv	s0,a0
800a5818:	00048a13          	mv	s4,s1
800a581c:	7ff00a93          	li	s5,2047
800a5820:	00300b13          	li	s6,3
800a5824:	eedff06f          	j	800a5710 <__divdf3+0x74>
800a5828:	0174ef33          	or	t5,s1,s7
800a582c:	080f0263          	beqz	t5,800a58b0 <__divdf3+0x214>
800a5830:	04048063          	beqz	s1,800a5870 <__divdf3+0x1d4>
800a5834:	00048513          	mv	a0,s1
800a5838:	185020ef          	jal	800a81bc <__clzsi2>
800a583c:	ff550713          	addi	a4,a0,-11
800a5840:	01d00793          	li	a5,29
800a5844:	ff850693          	addi	a3,a0,-8
800a5848:	40e787b3          	sub	a5,a5,a4
800a584c:	00d494b3          	sll	s1,s1,a3
800a5850:	00fbd7b3          	srl	a5,s7,a5
800a5854:	0097e7b3          	or	a5,a5,s1
800a5858:	00db94b3          	sll	s1,s7,a3
800a585c:	c0d00713          	li	a4,-1011
800a5860:	00048f13          	mv	t5,s1
800a5864:	40a70733          	sub	a4,a4,a0
800a5868:	00078493          	mv	s1,a5
800a586c:	ee1ff06f          	j	800a574c <__divdf3+0xb0>
800a5870:	000b8513          	mv	a0,s7
800a5874:	149020ef          	jal	800a81bc <__clzsi2>
800a5878:	00050793          	mv	a5,a0
800a587c:	01578713          	addi	a4,a5,21 # 800015 <__heap_size+0x600015>
800a5880:	01c00693          	li	a3,28
800a5884:	02050513          	addi	a0,a0,32
800a5888:	fae6dce3          	bge	a3,a4,800a5840 <__divdf3+0x1a4>
800a588c:	ff878793          	addi	a5,a5,-8
800a5890:	00fb97b3          	sll	a5,s7,a5
800a5894:	fc9ff06f          	j	800a585c <__divdf3+0x1c0>
800a5898:	0174ef33          	or	t5,s1,s7
800a589c:	020f1263          	bnez	t5,800a58c0 <__divdf3+0x224>
800a58a0:	00000493          	li	s1,0
800a58a4:	7ff00713          	li	a4,2047
800a58a8:	00200793          	li	a5,2
800a58ac:	ea5ff06f          	j	800a5750 <__divdf3+0xb4>
800a58b0:	00000493          	li	s1,0
800a58b4:	00000713          	li	a4,0
800a58b8:	00100793          	li	a5,1
800a58bc:	e95ff06f          	j	800a5750 <__divdf3+0xb4>
800a58c0:	000b8f13          	mv	t5,s7
800a58c4:	7ff00713          	li	a4,2047
800a58c8:	00300793          	li	a5,3
800a58cc:	e85ff06f          	j	800a5750 <__divdf3+0xb4>
800a58d0:	0144e663          	bltu	s1,s4,800a58dc <__divdf3+0x240>
800a58d4:	349a1c63          	bne	s4,s1,800a5c2c <__divdf3+0x590>
800a58d8:	35e46a63          	bltu	s0,t5,800a5c2c <__divdf3+0x590>
800a58dc:	01fa1693          	slli	a3,s4,0x1f
800a58e0:	00145793          	srli	a5,s0,0x1
800a58e4:	01f41713          	slli	a4,s0,0x1f
800a58e8:	001a5a13          	srli	s4,s4,0x1
800a58ec:	00f6e433          	or	s0,a3,a5
800a58f0:	00849893          	slli	a7,s1,0x8
800a58f4:	018f5593          	srli	a1,t5,0x18
800a58f8:	0115e5b3          	or	a1,a1,a7
800a58fc:	0108d893          	srli	a7,a7,0x10
800a5900:	031a5eb3          	divu	t4,s4,a7
800a5904:	01059313          	slli	t1,a1,0x10
800a5908:	01035313          	srli	t1,t1,0x10
800a590c:	01045793          	srli	a5,s0,0x10
800a5910:	008f1513          	slli	a0,t5,0x8
800a5914:	031a7a33          	remu	s4,s4,a7
800a5918:	000e8693          	mv	a3,t4
800a591c:	03d30e33          	mul	t3,t1,t4
800a5920:	010a1a13          	slli	s4,s4,0x10
800a5924:	0147e7b3          	or	a5,a5,s4
800a5928:	01c7fe63          	bgeu	a5,t3,800a5944 <__divdf3+0x2a8>
800a592c:	00f587b3          	add	a5,a1,a5
800a5930:	fffe8693          	addi	a3,t4,-1
800a5934:	00b7e863          	bltu	a5,a1,800a5944 <__divdf3+0x2a8>
800a5938:	01c7f663          	bgeu	a5,t3,800a5944 <__divdf3+0x2a8>
800a593c:	ffee8693          	addi	a3,t4,-2
800a5940:	00b787b3          	add	a5,a5,a1
800a5944:	41c787b3          	sub	a5,a5,t3
800a5948:	0317df33          	divu	t5,a5,a7
800a594c:	01041413          	slli	s0,s0,0x10
800a5950:	01045413          	srli	s0,s0,0x10
800a5954:	0317f7b3          	remu	a5,a5,a7
800a5958:	000f0e13          	mv	t3,t5
800a595c:	03e30eb3          	mul	t4,t1,t5
800a5960:	01079793          	slli	a5,a5,0x10
800a5964:	00f467b3          	or	a5,s0,a5
800a5968:	01d7fe63          	bgeu	a5,t4,800a5984 <__divdf3+0x2e8>
800a596c:	00f587b3          	add	a5,a1,a5
800a5970:	ffff0e13          	addi	t3,t5,-1
800a5974:	00b7e863          	bltu	a5,a1,800a5984 <__divdf3+0x2e8>
800a5978:	01d7f663          	bgeu	a5,t4,800a5984 <__divdf3+0x2e8>
800a597c:	ffef0e13          	addi	t3,t5,-2
800a5980:	00b787b3          	add	a5,a5,a1
800a5984:	01069693          	slli	a3,a3,0x10
800a5988:	00010437          	lui	s0,0x10
800a598c:	01c6e2b3          	or	t0,a3,t3
800a5990:	fff40e13          	addi	t3,s0,-1 # ffff <__stack_size+0xf7ff>
800a5994:	01c2f6b3          	and	a3,t0,t3
800a5998:	0102df93          	srli	t6,t0,0x10
800a599c:	01c57e33          	and	t3,a0,t3
800a59a0:	41d787b3          	sub	a5,a5,t4
800a59a4:	01055e93          	srli	t4,a0,0x10
800a59a8:	02de03b3          	mul	t2,t3,a3
800a59ac:	03cf84b3          	mul	s1,t6,t3
800a59b0:	02de86b3          	mul	a3,t4,a3
800a59b4:	00968f33          	add	t5,a3,s1
800a59b8:	0103d693          	srli	a3,t2,0x10
800a59bc:	01e686b3          	add	a3,a3,t5
800a59c0:	03df8fb3          	mul	t6,t6,t4
800a59c4:	0096f463          	bgeu	a3,s1,800a59cc <__divdf3+0x330>
800a59c8:	008f8fb3          	add	t6,t6,s0
800a59cc:	0106df13          	srli	t5,a3,0x10
800a59d0:	01ff0f33          	add	t5,t5,t6
800a59d4:	00010fb7          	lui	t6,0x10
800a59d8:	ffff8f93          	addi	t6,t6,-1 # ffff <__stack_size+0xf7ff>
800a59dc:	01f6f6b3          	and	a3,a3,t6
800a59e0:	01069693          	slli	a3,a3,0x10
800a59e4:	01f3f3b3          	and	t2,t2,t6
800a59e8:	007686b3          	add	a3,a3,t2
800a59ec:	01e7e863          	bltu	a5,t5,800a59fc <__divdf3+0x360>
800a59f0:	00028493          	mv	s1,t0
800a59f4:	05e79863          	bne	a5,t5,800a5a44 <__divdf3+0x3a8>
800a59f8:	04d77663          	bgeu	a4,a3,800a5a44 <__divdf3+0x3a8>
800a59fc:	00a70fb3          	add	t6,a4,a0
800a5a00:	00efb3b3          	sltu	t2,t6,a4
800a5a04:	00b38433          	add	s0,t2,a1
800a5a08:	008787b3          	add	a5,a5,s0
800a5a0c:	fff28493          	addi	s1,t0,-1
800a5a10:	000f8713          	mv	a4,t6
800a5a14:	00f5e663          	bltu	a1,a5,800a5a20 <__divdf3+0x384>
800a5a18:	02f59663          	bne	a1,a5,800a5a44 <__divdf3+0x3a8>
800a5a1c:	02039463          	bnez	t2,800a5a44 <__divdf3+0x3a8>
800a5a20:	01e7e663          	bltu	a5,t5,800a5a2c <__divdf3+0x390>
800a5a24:	02ff1063          	bne	t5,a5,800a5a44 <__divdf3+0x3a8>
800a5a28:	00dffe63          	bgeu	t6,a3,800a5a44 <__divdf3+0x3a8>
800a5a2c:	01f50fb3          	add	t6,a0,t6
800a5a30:	000f8713          	mv	a4,t6
800a5a34:	00afbfb3          	sltu	t6,t6,a0
800a5a38:	00bf8fb3          	add	t6,t6,a1
800a5a3c:	ffe28493          	addi	s1,t0,-2
800a5a40:	01f787b3          	add	a5,a5,t6
800a5a44:	40d706b3          	sub	a3,a4,a3
800a5a48:	41e787b3          	sub	a5,a5,t5
800a5a4c:	00d73733          	sltu	a4,a4,a3
800a5a50:	40e787b3          	sub	a5,a5,a4
800a5a54:	fff00f13          	li	t5,-1
800a5a58:	12f58663          	beq	a1,a5,800a5b84 <__divdf3+0x4e8>
800a5a5c:	0317dfb3          	divu	t6,a5,a7
800a5a60:	0106d713          	srli	a4,a3,0x10
800a5a64:	0317f7b3          	remu	a5,a5,a7
800a5a68:	03f30f33          	mul	t5,t1,t6
800a5a6c:	01079793          	slli	a5,a5,0x10
800a5a70:	00f767b3          	or	a5,a4,a5
800a5a74:	000f8713          	mv	a4,t6
800a5a78:	01e7fe63          	bgeu	a5,t5,800a5a94 <__divdf3+0x3f8>
800a5a7c:	00f587b3          	add	a5,a1,a5
800a5a80:	ffff8713          	addi	a4,t6,-1
800a5a84:	00b7e863          	bltu	a5,a1,800a5a94 <__divdf3+0x3f8>
800a5a88:	01e7f663          	bgeu	a5,t5,800a5a94 <__divdf3+0x3f8>
800a5a8c:	ffef8713          	addi	a4,t6,-2
800a5a90:	00b787b3          	add	a5,a5,a1
800a5a94:	41e787b3          	sub	a5,a5,t5
800a5a98:	0317df33          	divu	t5,a5,a7
800a5a9c:	01069693          	slli	a3,a3,0x10
800a5aa0:	0106d693          	srli	a3,a3,0x10
800a5aa4:	0317f7b3          	remu	a5,a5,a7
800a5aa8:	000f0893          	mv	a7,t5
800a5aac:	03e30333          	mul	t1,t1,t5
800a5ab0:	01079793          	slli	a5,a5,0x10
800a5ab4:	00f6e7b3          	or	a5,a3,a5
800a5ab8:	0067fe63          	bgeu	a5,t1,800a5ad4 <__divdf3+0x438>
800a5abc:	00f587b3          	add	a5,a1,a5
800a5ac0:	ffff0893          	addi	a7,t5,-1
800a5ac4:	00b7e863          	bltu	a5,a1,800a5ad4 <__divdf3+0x438>
800a5ac8:	0067f663          	bgeu	a5,t1,800a5ad4 <__divdf3+0x438>
800a5acc:	ffef0893          	addi	a7,t5,-2
800a5ad0:	00b787b3          	add	a5,a5,a1
800a5ad4:	01071693          	slli	a3,a4,0x10
800a5ad8:	0116e6b3          	or	a3,a3,a7
800a5adc:	01069713          	slli	a4,a3,0x10
800a5ae0:	01075713          	srli	a4,a4,0x10
800a5ae4:	406787b3          	sub	a5,a5,t1
800a5ae8:	0106d313          	srli	t1,a3,0x10
800a5aec:	03c70f33          	mul	t5,a4,t3
800a5af0:	03c30e33          	mul	t3,t1,t3
800a5af4:	026e8333          	mul	t1,t4,t1
800a5af8:	02ee8eb3          	mul	t4,t4,a4
800a5afc:	010f5713          	srli	a4,t5,0x10
800a5b00:	01ce8eb3          	add	t4,t4,t3
800a5b04:	01d70733          	add	a4,a4,t4
800a5b08:	01c77663          	bgeu	a4,t3,800a5b14 <__divdf3+0x478>
800a5b0c:	000108b7          	lui	a7,0x10
800a5b10:	01130333          	add	t1,t1,a7
800a5b14:	01075893          	srli	a7,a4,0x10
800a5b18:	006888b3          	add	a7,a7,t1
800a5b1c:	00010337          	lui	t1,0x10
800a5b20:	fff30313          	addi	t1,t1,-1 # ffff <__stack_size+0xf7ff>
800a5b24:	00677733          	and	a4,a4,t1
800a5b28:	01071713          	slli	a4,a4,0x10
800a5b2c:	006f7f33          	and	t5,t5,t1
800a5b30:	01e70733          	add	a4,a4,t5
800a5b34:	0117e863          	bltu	a5,a7,800a5b44 <__divdf3+0x4a8>
800a5b38:	23179c63          	bne	a5,a7,800a5d70 <__divdf3+0x6d4>
800a5b3c:	00068f13          	mv	t5,a3
800a5b40:	04070263          	beqz	a4,800a5b84 <__divdf3+0x4e8>
800a5b44:	00f587b3          	add	a5,a1,a5
800a5b48:	fff68f13          	addi	t5,a3,-1
800a5b4c:	00078313          	mv	t1,a5
800a5b50:	02b7e463          	bltu	a5,a1,800a5b78 <__divdf3+0x4dc>
800a5b54:	0117e663          	bltu	a5,a7,800a5b60 <__divdf3+0x4c4>
800a5b58:	21179a63          	bne	a5,a7,800a5d6c <__divdf3+0x6d0>
800a5b5c:	02e57063          	bgeu	a0,a4,800a5b7c <__divdf3+0x4e0>
800a5b60:	ffe68f13          	addi	t5,a3,-2
800a5b64:	00151693          	slli	a3,a0,0x1
800a5b68:	00a6b333          	sltu	t1,a3,a0
800a5b6c:	00b30333          	add	t1,t1,a1
800a5b70:	00678333          	add	t1,a5,t1
800a5b74:	00068513          	mv	a0,a3
800a5b78:	01131463          	bne	t1,a7,800a5b80 <__divdf3+0x4e4>
800a5b7c:	00a70463          	beq	a4,a0,800a5b84 <__divdf3+0x4e8>
800a5b80:	001f6f13          	ori	t5,t5,1
800a5b84:	3ff80713          	addi	a4,a6,1023
800a5b88:	10e05263          	blez	a4,800a5c8c <__divdf3+0x5f0>
800a5b8c:	007f7793          	andi	a5,t5,7
800a5b90:	02078063          	beqz	a5,800a5bb0 <__divdf3+0x514>
800a5b94:	00ff7793          	andi	a5,t5,15
800a5b98:	00400693          	li	a3,4
800a5b9c:	00d78a63          	beq	a5,a3,800a5bb0 <__divdf3+0x514>
800a5ba0:	004f0793          	addi	a5,t5,4
800a5ba4:	01e7b6b3          	sltu	a3,a5,t5
800a5ba8:	00d484b3          	add	s1,s1,a3
800a5bac:	00078f13          	mv	t5,a5
800a5bb0:	00749793          	slli	a5,s1,0x7
800a5bb4:	0007da63          	bgez	a5,800a5bc8 <__divdf3+0x52c>
800a5bb8:	ff0007b7          	lui	a5,0xff000
800a5bbc:	fff78793          	addi	a5,a5,-1 # feffffff <__stack_top+0x7e7fe7ff>
800a5bc0:	00f4f4b3          	and	s1,s1,a5
800a5bc4:	40080713          	addi	a4,a6,1024
800a5bc8:	7fe00793          	li	a5,2046
800a5bcc:	08e7ca63          	blt	a5,a4,800a5c60 <__divdf3+0x5c4>
800a5bd0:	003f5f13          	srli	t5,t5,0x3
800a5bd4:	01d49793          	slli	a5,s1,0x1d
800a5bd8:	01e7ef33          	or	t5,a5,t5
800a5bdc:	0034d513          	srli	a0,s1,0x3
800a5be0:	00c51513          	slli	a0,a0,0xc
800a5be4:	02c12083          	lw	ra,44(sp)
800a5be8:	02812403          	lw	s0,40(sp)
800a5bec:	00c55513          	srli	a0,a0,0xc
800a5bf0:	01471713          	slli	a4,a4,0x14
800a5bf4:	00a76733          	or	a4,a4,a0
800a5bf8:	01f61613          	slli	a2,a2,0x1f
800a5bfc:	00c767b3          	or	a5,a4,a2
800a5c00:	02412483          	lw	s1,36(sp)
800a5c04:	02012903          	lw	s2,32(sp)
800a5c08:	01c12983          	lw	s3,28(sp)
800a5c0c:	01812a03          	lw	s4,24(sp)
800a5c10:	01412a83          	lw	s5,20(sp)
800a5c14:	01012b03          	lw	s6,16(sp)
800a5c18:	00c12b83          	lw	s7,12(sp)
800a5c1c:	000f0513          	mv	a0,t5
800a5c20:	00078593          	mv	a1,a5
800a5c24:	03010113          	addi	sp,sp,48
800a5c28:	00008067          	ret
800a5c2c:	fff80813          	addi	a6,a6,-1
800a5c30:	00000713          	li	a4,0
800a5c34:	cbdff06f          	j	800a58f0 <__divdf3+0x254>
800a5c38:	00098613          	mv	a2,s3
800a5c3c:	000a0493          	mv	s1,s4
800a5c40:	00040f13          	mv	t5,s0
800a5c44:	000b0793          	mv	a5,s6
800a5c48:	00300713          	li	a4,3
800a5c4c:	0ee78863          	beq	a5,a4,800a5d3c <__divdf3+0x6a0>
800a5c50:	00100713          	li	a4,1
800a5c54:	0ee78e63          	beq	a5,a4,800a5d50 <__divdf3+0x6b4>
800a5c58:	00200713          	li	a4,2
800a5c5c:	f2e794e3          	bne	a5,a4,800a5b84 <__divdf3+0x4e8>
800a5c60:	00000513          	li	a0,0
800a5c64:	00000f13          	li	t5,0
800a5c68:	7ff00713          	li	a4,2047
800a5c6c:	f75ff06f          	j	800a5be0 <__divdf3+0x544>
800a5c70:	00090613          	mv	a2,s2
800a5c74:	fd5ff06f          	j	800a5c48 <__divdf3+0x5ac>
800a5c78:	000804b7          	lui	s1,0x80
800a5c7c:	00000f13          	li	t5,0
800a5c80:	00000613          	li	a2,0
800a5c84:	00300793          	li	a5,3
800a5c88:	fc1ff06f          	j	800a5c48 <__divdf3+0x5ac>
800a5c8c:	00100513          	li	a0,1
800a5c90:	40e50533          	sub	a0,a0,a4
800a5c94:	03800793          	li	a5,56
800a5c98:	0aa7cc63          	blt	a5,a0,800a5d50 <__divdf3+0x6b4>
800a5c9c:	01f00793          	li	a5,31
800a5ca0:	06a7c463          	blt	a5,a0,800a5d08 <__divdf3+0x66c>
800a5ca4:	41e80813          	addi	a6,a6,1054
800a5ca8:	010497b3          	sll	a5,s1,a6
800a5cac:	00af5733          	srl	a4,t5,a0
800a5cb0:	010f1833          	sll	a6,t5,a6
800a5cb4:	00e7e7b3          	or	a5,a5,a4
800a5cb8:	01003833          	snez	a6,a6
800a5cbc:	0107e7b3          	or	a5,a5,a6
800a5cc0:	00a4d533          	srl	a0,s1,a0
800a5cc4:	0077f713          	andi	a4,a5,7
800a5cc8:	02070063          	beqz	a4,800a5ce8 <__divdf3+0x64c>
800a5ccc:	00f7f713          	andi	a4,a5,15
800a5cd0:	00400693          	li	a3,4
800a5cd4:	00d70a63          	beq	a4,a3,800a5ce8 <__divdf3+0x64c>
800a5cd8:	00478713          	addi	a4,a5,4
800a5cdc:	00f736b3          	sltu	a3,a4,a5
800a5ce0:	00d50533          	add	a0,a0,a3
800a5ce4:	00070793          	mv	a5,a4
800a5ce8:	00851713          	slli	a4,a0,0x8
800a5cec:	06074863          	bltz	a4,800a5d5c <__divdf3+0x6c0>
800a5cf0:	01d51f13          	slli	t5,a0,0x1d
800a5cf4:	0037d793          	srli	a5,a5,0x3
800a5cf8:	00ff6f33          	or	t5,t5,a5
800a5cfc:	00355513          	srli	a0,a0,0x3
800a5d00:	00000713          	li	a4,0
800a5d04:	eddff06f          	j	800a5be0 <__divdf3+0x544>
800a5d08:	fe100793          	li	a5,-31
800a5d0c:	40e787b3          	sub	a5,a5,a4
800a5d10:	02000693          	li	a3,32
800a5d14:	00f4d7b3          	srl	a5,s1,a5
800a5d18:	00000713          	li	a4,0
800a5d1c:	00d50663          	beq	a0,a3,800a5d28 <__divdf3+0x68c>
800a5d20:	43e80713          	addi	a4,a6,1086
800a5d24:	00e49733          	sll	a4,s1,a4
800a5d28:	01e76733          	or	a4,a4,t5
800a5d2c:	00e03733          	snez	a4,a4
800a5d30:	00e7e7b3          	or	a5,a5,a4
800a5d34:	00000513          	li	a0,0
800a5d38:	f8dff06f          	j	800a5cc4 <__divdf3+0x628>
800a5d3c:	00080537          	lui	a0,0x80
800a5d40:	00000f13          	li	t5,0
800a5d44:	7ff00713          	li	a4,2047
800a5d48:	00000613          	li	a2,0
800a5d4c:	e95ff06f          	j	800a5be0 <__divdf3+0x544>
800a5d50:	00000513          	li	a0,0
800a5d54:	00000f13          	li	t5,0
800a5d58:	fa9ff06f          	j	800a5d00 <__divdf3+0x664>
800a5d5c:	00000513          	li	a0,0
800a5d60:	00000f13          	li	t5,0
800a5d64:	00100713          	li	a4,1
800a5d68:	e79ff06f          	j	800a5be0 <__divdf3+0x544>
800a5d6c:	000f0693          	mv	a3,t5
800a5d70:	00068f13          	mv	t5,a3
800a5d74:	e0dff06f          	j	800a5b80 <__divdf3+0x4e4>

800a5d78 <__gedf2>:
800a5d78:	0146d793          	srli	a5,a3,0x14
800a5d7c:	0145d893          	srli	a7,a1,0x14
800a5d80:	00100737          	lui	a4,0x100
800a5d84:	fff70713          	addi	a4,a4,-1 # fffff <__stack_size+0xff7ff>
800a5d88:	00050813          	mv	a6,a0
800a5d8c:	00050e13          	mv	t3,a0
800a5d90:	7ff8f893          	andi	a7,a7,2047
800a5d94:	7ff7f513          	andi	a0,a5,2047
800a5d98:	7ff00793          	li	a5,2047
800a5d9c:	00b77333          	and	t1,a4,a1
800a5da0:	00060e93          	mv	t4,a2
800a5da4:	00d77733          	and	a4,a4,a3
800a5da8:	01f5d593          	srli	a1,a1,0x1f
800a5dac:	01f6d693          	srli	a3,a3,0x1f
800a5db0:	00f89663          	bne	a7,a5,800a5dbc <__gedf2+0x44>
800a5db4:	010367b3          	or	a5,t1,a6
800a5db8:	06079c63          	bnez	a5,800a5e30 <__gedf2+0xb8>
800a5dbc:	7ff00793          	li	a5,2047
800a5dc0:	00f51663          	bne	a0,a5,800a5dcc <__gedf2+0x54>
800a5dc4:	00c767b3          	or	a5,a4,a2
800a5dc8:	06079463          	bnez	a5,800a5e30 <__gedf2+0xb8>
800a5dcc:	00000793          	li	a5,0
800a5dd0:	00089663          	bnez	a7,800a5ddc <__gedf2+0x64>
800a5dd4:	01036833          	or	a6,t1,a6
800a5dd8:	00183793          	seqz	a5,a6
800a5ddc:	04051e63          	bnez	a0,800a5e38 <__gedf2+0xc0>
800a5de0:	00c76633          	or	a2,a4,a2
800a5de4:	00078c63          	beqz	a5,800a5dfc <__gedf2+0x84>
800a5de8:	02060063          	beqz	a2,800a5e08 <__gedf2+0x90>
800a5dec:	00100513          	li	a0,1
800a5df0:	00069c63          	bnez	a3,800a5e08 <__gedf2+0x90>
800a5df4:	fff00513          	li	a0,-1
800a5df8:	00008067          	ret
800a5dfc:	04061063          	bnez	a2,800a5e3c <__gedf2+0xc4>
800a5e00:	fff00513          	li	a0,-1
800a5e04:	04058463          	beqz	a1,800a5e4c <__gedf2+0xd4>
800a5e08:	00008067          	ret
800a5e0c:	fea8c0e3          	blt	a7,a0,800a5dec <__gedf2+0x74>
800a5e10:	fe6768e3          	bltu	a4,t1,800a5e00 <__gedf2+0x88>
800a5e14:	00e31863          	bne	t1,a4,800a5e24 <__gedf2+0xac>
800a5e18:	ffcee4e3          	bltu	t4,t3,800a5e00 <__gedf2+0x88>
800a5e1c:	00000513          	li	a0,0
800a5e20:	ffde74e3          	bgeu	t3,t4,800a5e08 <__gedf2+0x90>
800a5e24:	00100513          	li	a0,1
800a5e28:	fe0590e3          	bnez	a1,800a5e08 <__gedf2+0x90>
800a5e2c:	fc9ff06f          	j	800a5df4 <__gedf2+0x7c>
800a5e30:	ffe00513          	li	a0,-2
800a5e34:	00008067          	ret
800a5e38:	fa079ae3          	bnez	a5,800a5dec <__gedf2+0x74>
800a5e3c:	fcb692e3          	bne	a3,a1,800a5e00 <__gedf2+0x88>
800a5e40:	fd1556e3          	bge	a0,a7,800a5e0c <__gedf2+0x94>
800a5e44:	fff00513          	li	a0,-1
800a5e48:	fc0690e3          	bnez	a3,800a5e08 <__gedf2+0x90>
800a5e4c:	00100513          	li	a0,1
800a5e50:	00008067          	ret

800a5e54 <__ledf2>:
800a5e54:	0146d793          	srli	a5,a3,0x14
800a5e58:	0145d893          	srli	a7,a1,0x14
800a5e5c:	00100737          	lui	a4,0x100
800a5e60:	fff70713          	addi	a4,a4,-1 # fffff <__stack_size+0xff7ff>
800a5e64:	00050813          	mv	a6,a0
800a5e68:	00050e13          	mv	t3,a0
800a5e6c:	7ff8f893          	andi	a7,a7,2047
800a5e70:	7ff7f513          	andi	a0,a5,2047
800a5e74:	7ff00793          	li	a5,2047
800a5e78:	00b77333          	and	t1,a4,a1
800a5e7c:	00060e93          	mv	t4,a2
800a5e80:	00d77733          	and	a4,a4,a3
800a5e84:	01f5d593          	srli	a1,a1,0x1f
800a5e88:	01f6d693          	srli	a3,a3,0x1f
800a5e8c:	00f89663          	bne	a7,a5,800a5e98 <__ledf2+0x44>
800a5e90:	010367b3          	or	a5,t1,a6
800a5e94:	06079c63          	bnez	a5,800a5f0c <__ledf2+0xb8>
800a5e98:	7ff00793          	li	a5,2047
800a5e9c:	00f51663          	bne	a0,a5,800a5ea8 <__ledf2+0x54>
800a5ea0:	00c767b3          	or	a5,a4,a2
800a5ea4:	06079463          	bnez	a5,800a5f0c <__ledf2+0xb8>
800a5ea8:	00000793          	li	a5,0
800a5eac:	00089663          	bnez	a7,800a5eb8 <__ledf2+0x64>
800a5eb0:	01036833          	or	a6,t1,a6
800a5eb4:	00183793          	seqz	a5,a6
800a5eb8:	04051e63          	bnez	a0,800a5f14 <__ledf2+0xc0>
800a5ebc:	00c76633          	or	a2,a4,a2
800a5ec0:	00078c63          	beqz	a5,800a5ed8 <__ledf2+0x84>
800a5ec4:	02060063          	beqz	a2,800a5ee4 <__ledf2+0x90>
800a5ec8:	00100513          	li	a0,1
800a5ecc:	00069c63          	bnez	a3,800a5ee4 <__ledf2+0x90>
800a5ed0:	fff00513          	li	a0,-1
800a5ed4:	00008067          	ret
800a5ed8:	04061063          	bnez	a2,800a5f18 <__ledf2+0xc4>
800a5edc:	fff00513          	li	a0,-1
800a5ee0:	04058463          	beqz	a1,800a5f28 <__ledf2+0xd4>
800a5ee4:	00008067          	ret
800a5ee8:	fea8c0e3          	blt	a7,a0,800a5ec8 <__ledf2+0x74>
800a5eec:	fe6768e3          	bltu	a4,t1,800a5edc <__ledf2+0x88>
800a5ef0:	00e31863          	bne	t1,a4,800a5f00 <__ledf2+0xac>
800a5ef4:	ffcee4e3          	bltu	t4,t3,800a5edc <__ledf2+0x88>
800a5ef8:	00000513          	li	a0,0
800a5efc:	ffde74e3          	bgeu	t3,t4,800a5ee4 <__ledf2+0x90>
800a5f00:	00100513          	li	a0,1
800a5f04:	fe0590e3          	bnez	a1,800a5ee4 <__ledf2+0x90>
800a5f08:	fc9ff06f          	j	800a5ed0 <__ledf2+0x7c>
800a5f0c:	00200513          	li	a0,2
800a5f10:	00008067          	ret
800a5f14:	fa079ae3          	bnez	a5,800a5ec8 <__ledf2+0x74>
800a5f18:	fcb692e3          	bne	a3,a1,800a5edc <__ledf2+0x88>
800a5f1c:	fd1556e3          	bge	a0,a7,800a5ee8 <__ledf2+0x94>
800a5f20:	fff00513          	li	a0,-1
800a5f24:	fc0690e3          	bnez	a3,800a5ee4 <__ledf2+0x90>
800a5f28:	00100513          	li	a0,1
800a5f2c:	00008067          	ret

800a5f30 <__muldf3>:
800a5f30:	fd010113          	addi	sp,sp,-48
800a5f34:	01512a23          	sw	s5,20(sp)
800a5f38:	0145da93          	srli	s5,a1,0x14
800a5f3c:	02812423          	sw	s0,40(sp)
800a5f40:	02912223          	sw	s1,36(sp)
800a5f44:	01312e23          	sw	s3,28(sp)
800a5f48:	01412c23          	sw	s4,24(sp)
800a5f4c:	01612823          	sw	s6,16(sp)
800a5f50:	00c59493          	slli	s1,a1,0xc
800a5f54:	02112623          	sw	ra,44(sp)
800a5f58:	03212023          	sw	s2,32(sp)
800a5f5c:	01712623          	sw	s7,12(sp)
800a5f60:	7ffafa93          	andi	s5,s5,2047
800a5f64:	00050413          	mv	s0,a0
800a5f68:	00060b13          	mv	s6,a2
800a5f6c:	00068993          	mv	s3,a3
800a5f70:	00c4d493          	srli	s1,s1,0xc
800a5f74:	01f5da13          	srli	s4,a1,0x1f
800a5f78:	240a8e63          	beqz	s5,800a61d4 <__muldf3+0x2a4>
800a5f7c:	7ff00793          	li	a5,2047
800a5f80:	2cfa8063          	beq	s5,a5,800a6240 <__muldf3+0x310>
800a5f84:	00349493          	slli	s1,s1,0x3
800a5f88:	01d55793          	srli	a5,a0,0x1d
800a5f8c:	0097e7b3          	or	a5,a5,s1
800a5f90:	008004b7          	lui	s1,0x800
800a5f94:	0097e4b3          	or	s1,a5,s1
800a5f98:	00351913          	slli	s2,a0,0x3
800a5f9c:	c01a8a93          	addi	s5,s5,-1023
800a5fa0:	00000b93          	li	s7,0
800a5fa4:	0149d713          	srli	a4,s3,0x14
800a5fa8:	00c99413          	slli	s0,s3,0xc
800a5fac:	7ff77713          	andi	a4,a4,2047
800a5fb0:	00c45413          	srli	s0,s0,0xc
800a5fb4:	01f9d993          	srli	s3,s3,0x1f
800a5fb8:	2c070063          	beqz	a4,800a6278 <__muldf3+0x348>
800a5fbc:	7ff00793          	li	a5,2047
800a5fc0:	32f70463          	beq	a4,a5,800a62e8 <__muldf3+0x3b8>
800a5fc4:	00341413          	slli	s0,s0,0x3
800a5fc8:	01db5793          	srli	a5,s6,0x1d
800a5fcc:	0087e7b3          	or	a5,a5,s0
800a5fd0:	00800437          	lui	s0,0x800
800a5fd4:	0087e433          	or	s0,a5,s0
800a5fd8:	c0170693          	addi	a3,a4,-1023
800a5fdc:	003b1793          	slli	a5,s6,0x3
800a5fe0:	00000713          	li	a4,0
800a5fe4:	00da8ab3          	add	s5,s5,a3
800a5fe8:	002b9693          	slli	a3,s7,0x2
800a5fec:	00e6e6b3          	or	a3,a3,a4
800a5ff0:	00a00613          	li	a2,10
800a5ff4:	001a8513          	addi	a0,s5,1
800a5ff8:	40d64663          	blt	a2,a3,800a6404 <__muldf3+0x4d4>
800a5ffc:	00200613          	li	a2,2
800a6000:	013a45b3          	xor	a1,s4,s3
800a6004:	30d64e63          	blt	a2,a3,800a6320 <__muldf3+0x3f0>
800a6008:	fff68693          	addi	a3,a3,-1
800a600c:	00100613          	li	a2,1
800a6010:	32d67a63          	bgeu	a2,a3,800a6344 <__muldf3+0x414>
800a6014:	00010337          	lui	t1,0x10
800a6018:	fff30e13          	addi	t3,t1,-1 # ffff <__stack_size+0xf7ff>
800a601c:	01095713          	srli	a4,s2,0x10
800a6020:	0107d893          	srli	a7,a5,0x10
800a6024:	01c97933          	and	s2,s2,t3
800a6028:	01c7ff33          	and	t5,a5,t3
800a602c:	03e907b3          	mul	a5,s2,t5
800a6030:	03e70eb3          	mul	t4,a4,t5
800a6034:	0107d813          	srli	a6,a5,0x10
800a6038:	03288633          	mul	a2,a7,s2
800a603c:	01d60633          	add	a2,a2,t4
800a6040:	00c80833          	add	a6,a6,a2
800a6044:	031706b3          	mul	a3,a4,a7
800a6048:	01d87463          	bgeu	a6,t4,800a6050 <__muldf3+0x120>
800a604c:	006686b3          	add	a3,a3,t1
800a6050:	01085293          	srli	t0,a6,0x10
800a6054:	01c87833          	and	a6,a6,t3
800a6058:	01c7f7b3          	and	a5,a5,t3
800a605c:	01045613          	srli	a2,s0,0x10
800a6060:	01c47e33          	and	t3,s0,t3
800a6064:	01081813          	slli	a6,a6,0x10
800a6068:	00f80833          	add	a6,a6,a5
800a606c:	03c90eb3          	mul	t4,s2,t3
800a6070:	03c707b3          	mul	a5,a4,t3
800a6074:	03260933          	mul	s2,a2,s2
800a6078:	02c70333          	mul	t1,a4,a2
800a607c:	00f90933          	add	s2,s2,a5
800a6080:	010ed713          	srli	a4,t4,0x10
800a6084:	01270733          	add	a4,a4,s2
800a6088:	00f77663          	bgeu	a4,a5,800a6094 <__muldf3+0x164>
800a608c:	000107b7          	lui	a5,0x10
800a6090:	00f30333          	add	t1,t1,a5
800a6094:	00010437          	lui	s0,0x10
800a6098:	01075793          	srli	a5,a4,0x10
800a609c:	fff40f93          	addi	t6,s0,-1 # ffff <__stack_size+0xf7ff>
800a60a0:	00678333          	add	t1,a5,t1
800a60a4:	01f777b3          	and	a5,a4,t6
800a60a8:	01fefeb3          	and	t4,t4,t6
800a60ac:	01079793          	slli	a5,a5,0x10
800a60b0:	01f4ffb3          	and	t6,s1,t6
800a60b4:	01d787b3          	add	a5,a5,t4
800a60b8:	0104de93          	srli	t4,s1,0x10
800a60bc:	03ff03b3          	mul	t2,t5,t6
800a60c0:	00f282b3          	add	t0,t0,a5
800a60c4:	03ee8f33          	mul	t5,t4,t5
800a60c8:	0103d713          	srli	a4,t2,0x10
800a60cc:	03d884b3          	mul	s1,a7,t4
800a60d0:	03f888b3          	mul	a7,a7,t6
800a60d4:	01e888b3          	add	a7,a7,t5
800a60d8:	01170733          	add	a4,a4,a7
800a60dc:	01e77463          	bgeu	a4,t5,800a60e4 <__muldf3+0x1b4>
800a60e0:	008484b3          	add	s1,s1,s0
800a60e4:	01075f13          	srli	t5,a4,0x10
800a60e8:	009f0f33          	add	t5,t5,s1
800a60ec:	000104b7          	lui	s1,0x10
800a60f0:	fff48413          	addi	s0,s1,-1 # ffff <__stack_size+0xf7ff>
800a60f4:	00877733          	and	a4,a4,s0
800a60f8:	0083f3b3          	and	t2,t2,s0
800a60fc:	01071713          	slli	a4,a4,0x10
800a6100:	007708b3          	add	a7,a4,t2
800a6104:	03fe03b3          	mul	t2,t3,t6
800a6108:	03ce8e33          	mul	t3,t4,t3
800a610c:	03d60eb3          	mul	t4,a2,t4
800a6110:	03f60633          	mul	a2,a2,t6
800a6114:	0103df93          	srli	t6,t2,0x10
800a6118:	01c60633          	add	a2,a2,t3
800a611c:	00cf8fb3          	add	t6,t6,a2
800a6120:	01cff463          	bgeu	t6,t3,800a6128 <__muldf3+0x1f8>
800a6124:	009e8eb3          	add	t4,t4,s1
800a6128:	008ff733          	and	a4,t6,s0
800a612c:	0083f3b3          	and	t2,t2,s0
800a6130:	01071713          	slli	a4,a4,0x10
800a6134:	005686b3          	add	a3,a3,t0
800a6138:	00770733          	add	a4,a4,t2
800a613c:	00670333          	add	t1,a4,t1
800a6140:	00f6b7b3          	sltu	a5,a3,a5
800a6144:	00f307b3          	add	a5,t1,a5
800a6148:	00e33633          	sltu	a2,t1,a4
800a614c:	011688b3          	add	a7,a3,a7
800a6150:	0067b333          	sltu	t1,a5,t1
800a6154:	00666633          	or	a2,a2,t1
800a6158:	00d8b6b3          	sltu	a3,a7,a3
800a615c:	01e78333          	add	t1,a5,t5
800a6160:	00d306b3          	add	a3,t1,a3
800a6164:	00f33733          	sltu	a4,t1,a5
800a6168:	010fdf93          	srli	t6,t6,0x10
800a616c:	0066b333          	sltu	t1,a3,t1
800a6170:	00989793          	slli	a5,a7,0x9
800a6174:	01f60633          	add	a2,a2,t6
800a6178:	00676733          	or	a4,a4,t1
800a617c:	00c70733          	add	a4,a4,a2
800a6180:	0107e7b3          	or	a5,a5,a6
800a6184:	01d70733          	add	a4,a4,t4
800a6188:	00f037b3          	snez	a5,a5
800a618c:	0178d893          	srli	a7,a7,0x17
800a6190:	00971713          	slli	a4,a4,0x9
800a6194:	0176d413          	srli	s0,a3,0x17
800a6198:	0117e7b3          	or	a5,a5,a7
800a619c:	00969693          	slli	a3,a3,0x9
800a61a0:	00d7e7b3          	or	a5,a5,a3
800a61a4:	00771693          	slli	a3,a4,0x7
800a61a8:	00876433          	or	s0,a4,s0
800a61ac:	0206d063          	bgez	a3,800a61cc <__muldf3+0x29c>
800a61b0:	0017d713          	srli	a4,a5,0x1
800a61b4:	0017f793          	andi	a5,a5,1
800a61b8:	00f76733          	or	a4,a4,a5
800a61bc:	01f41793          	slli	a5,s0,0x1f
800a61c0:	00f767b3          	or	a5,a4,a5
800a61c4:	00145413          	srli	s0,s0,0x1
800a61c8:	00050a93          	mv	s5,a0
800a61cc:	000a8513          	mv	a0,s5
800a61d0:	18c0006f          	j	800a635c <__muldf3+0x42c>
800a61d4:	00a4e933          	or	s2,s1,a0
800a61d8:	08090063          	beqz	s2,800a6258 <__muldf3+0x328>
800a61dc:	04048063          	beqz	s1,800a621c <__muldf3+0x2ec>
800a61e0:	00048513          	mv	a0,s1
800a61e4:	7d9010ef          	jal	800a81bc <__clzsi2>
800a61e8:	ff550713          	addi	a4,a0,-11 # 7fff5 <__stack_size+0x7f7f5>
800a61ec:	01d00793          	li	a5,29
800a61f0:	ff850693          	addi	a3,a0,-8
800a61f4:	40e787b3          	sub	a5,a5,a4
800a61f8:	00d494b3          	sll	s1,s1,a3
800a61fc:	00f457b3          	srl	a5,s0,a5
800a6200:	0097e7b3          	or	a5,a5,s1
800a6204:	00d414b3          	sll	s1,s0,a3
800a6208:	c0d00a93          	li	s5,-1011
800a620c:	00048913          	mv	s2,s1
800a6210:	40aa8ab3          	sub	s5,s5,a0
800a6214:	00078493          	mv	s1,a5
800a6218:	d89ff06f          	j	800a5fa0 <__muldf3+0x70>
800a621c:	7a1010ef          	jal	800a81bc <__clzsi2>
800a6220:	00050793          	mv	a5,a0
800a6224:	01578713          	addi	a4,a5,21 # 10015 <__stack_size+0xf815>
800a6228:	01c00693          	li	a3,28
800a622c:	02050513          	addi	a0,a0,32
800a6230:	fae6dee3          	bge	a3,a4,800a61ec <__muldf3+0x2bc>
800a6234:	ff878793          	addi	a5,a5,-8
800a6238:	00f417b3          	sll	a5,s0,a5
800a623c:	fcdff06f          	j	800a6208 <__muldf3+0x2d8>
800a6240:	00a4e933          	or	s2,s1,a0
800a6244:	02091263          	bnez	s2,800a6268 <__muldf3+0x338>
800a6248:	00000493          	li	s1,0
800a624c:	7ff00a93          	li	s5,2047
800a6250:	00200b93          	li	s7,2
800a6254:	d51ff06f          	j	800a5fa4 <__muldf3+0x74>
800a6258:	00000493          	li	s1,0
800a625c:	00000a93          	li	s5,0
800a6260:	00100b93          	li	s7,1
800a6264:	d41ff06f          	j	800a5fa4 <__muldf3+0x74>
800a6268:	00050913          	mv	s2,a0
800a626c:	7ff00a93          	li	s5,2047
800a6270:	00300b93          	li	s7,3
800a6274:	d31ff06f          	j	800a5fa4 <__muldf3+0x74>
800a6278:	016467b3          	or	a5,s0,s6
800a627c:	08078263          	beqz	a5,800a6300 <__muldf3+0x3d0>
800a6280:	04040063          	beqz	s0,800a62c0 <__muldf3+0x390>
800a6284:	00040513          	mv	a0,s0
800a6288:	735010ef          	jal	800a81bc <__clzsi2>
800a628c:	ff550693          	addi	a3,a0,-11
800a6290:	01d00713          	li	a4,29
800a6294:	ff850793          	addi	a5,a0,-8
800a6298:	40d70733          	sub	a4,a4,a3
800a629c:	00f41433          	sll	s0,s0,a5
800a62a0:	00eb5733          	srl	a4,s6,a4
800a62a4:	00876733          	or	a4,a4,s0
800a62a8:	00fb1433          	sll	s0,s6,a5
800a62ac:	c0d00693          	li	a3,-1011
800a62b0:	00040793          	mv	a5,s0
800a62b4:	40a686b3          	sub	a3,a3,a0
800a62b8:	00070413          	mv	s0,a4
800a62bc:	d25ff06f          	j	800a5fe0 <__muldf3+0xb0>
800a62c0:	000b0513          	mv	a0,s6
800a62c4:	6f9010ef          	jal	800a81bc <__clzsi2>
800a62c8:	00050793          	mv	a5,a0
800a62cc:	01578693          	addi	a3,a5,21
800a62d0:	01c00713          	li	a4,28
800a62d4:	02050513          	addi	a0,a0,32
800a62d8:	fad75ce3          	bge	a4,a3,800a6290 <__muldf3+0x360>
800a62dc:	ff878793          	addi	a5,a5,-8
800a62e0:	00fb1733          	sll	a4,s6,a5
800a62e4:	fc9ff06f          	j	800a62ac <__muldf3+0x37c>
800a62e8:	016467b3          	or	a5,s0,s6
800a62ec:	02079263          	bnez	a5,800a6310 <__muldf3+0x3e0>
800a62f0:	00000413          	li	s0,0
800a62f4:	7ff00693          	li	a3,2047
800a62f8:	00200713          	li	a4,2
800a62fc:	ce9ff06f          	j	800a5fe4 <__muldf3+0xb4>
800a6300:	00000413          	li	s0,0
800a6304:	00000693          	li	a3,0
800a6308:	00100713          	li	a4,1
800a630c:	cd9ff06f          	j	800a5fe4 <__muldf3+0xb4>
800a6310:	000b0793          	mv	a5,s6
800a6314:	7ff00693          	li	a3,2047
800a6318:	00300713          	li	a4,3
800a631c:	cc9ff06f          	j	800a5fe4 <__muldf3+0xb4>
800a6320:	00100613          	li	a2,1
800a6324:	00d61633          	sll	a2,a2,a3
800a6328:	53067693          	andi	a3,a2,1328
800a632c:	0e069663          	bnez	a3,800a6418 <__muldf3+0x4e8>
800a6330:	24067813          	andi	a6,a2,576
800a6334:	1a081a63          	bnez	a6,800a64e8 <__muldf3+0x5b8>
800a6338:	08867613          	andi	a2,a2,136
800a633c:	cc060ce3          	beqz	a2,800a6014 <__muldf3+0xe4>
800a6340:	00098593          	mv	a1,s3
800a6344:	00200693          	li	a3,2
800a6348:	18d70863          	beq	a4,a3,800a64d8 <__muldf3+0x5a8>
800a634c:	00300693          	li	a3,3
800a6350:	1ad70463          	beq	a4,a3,800a64f8 <__muldf3+0x5c8>
800a6354:	00100693          	li	a3,1
800a6358:	1ad70663          	beq	a4,a3,800a6504 <__muldf3+0x5d4>
800a635c:	3ff50613          	addi	a2,a0,1023
800a6360:	0cc05463          	blez	a2,800a6428 <__muldf3+0x4f8>
800a6364:	0077f713          	andi	a4,a5,7
800a6368:	02070063          	beqz	a4,800a6388 <__muldf3+0x458>
800a636c:	00f7f713          	andi	a4,a5,15
800a6370:	00400693          	li	a3,4
800a6374:	00d70a63          	beq	a4,a3,800a6388 <__muldf3+0x458>
800a6378:	00478713          	addi	a4,a5,4
800a637c:	00f736b3          	sltu	a3,a4,a5
800a6380:	00d40433          	add	s0,s0,a3
800a6384:	00070793          	mv	a5,a4
800a6388:	00741713          	slli	a4,s0,0x7
800a638c:	00075a63          	bgez	a4,800a63a0 <__muldf3+0x470>
800a6390:	ff000737          	lui	a4,0xff000
800a6394:	fff70713          	addi	a4,a4,-1 # feffffff <__stack_top+0x7e7fe7ff>
800a6398:	00e47433          	and	s0,s0,a4
800a639c:	40050613          	addi	a2,a0,1024
800a63a0:	7fe00713          	li	a4,2046
800a63a4:	12c74a63          	blt	a4,a2,800a64d8 <__muldf3+0x5a8>
800a63a8:	0037d793          	srli	a5,a5,0x3
800a63ac:	01d41693          	slli	a3,s0,0x1d
800a63b0:	00f6e6b3          	or	a3,a3,a5
800a63b4:	00345713          	srli	a4,s0,0x3
800a63b8:	00c71713          	slli	a4,a4,0xc
800a63bc:	02c12083          	lw	ra,44(sp)
800a63c0:	02812403          	lw	s0,40(sp)
800a63c4:	01461613          	slli	a2,a2,0x14
800a63c8:	00c75713          	srli	a4,a4,0xc
800a63cc:	01f59593          	slli	a1,a1,0x1f
800a63d0:	00e66633          	or	a2,a2,a4
800a63d4:	00b667b3          	or	a5,a2,a1
800a63d8:	02412483          	lw	s1,36(sp)
800a63dc:	02012903          	lw	s2,32(sp)
800a63e0:	01c12983          	lw	s3,28(sp)
800a63e4:	01812a03          	lw	s4,24(sp)
800a63e8:	01412a83          	lw	s5,20(sp)
800a63ec:	01012b03          	lw	s6,16(sp)
800a63f0:	00c12b83          	lw	s7,12(sp)
800a63f4:	00068513          	mv	a0,a3
800a63f8:	00078593          	mv	a1,a5
800a63fc:	03010113          	addi	sp,sp,48
800a6400:	00008067          	ret
800a6404:	00f00613          	li	a2,15
800a6408:	0ec68863          	beq	a3,a2,800a64f8 <__muldf3+0x5c8>
800a640c:	00b00613          	li	a2,11
800a6410:	000a0593          	mv	a1,s4
800a6414:	f2c686e3          	beq	a3,a2,800a6340 <__muldf3+0x410>
800a6418:	00048413          	mv	s0,s1
800a641c:	00090793          	mv	a5,s2
800a6420:	000b8713          	mv	a4,s7
800a6424:	f21ff06f          	j	800a6344 <__muldf3+0x414>
800a6428:	00100713          	li	a4,1
800a642c:	40c70733          	sub	a4,a4,a2
800a6430:	03800693          	li	a3,56
800a6434:	0ce6c863          	blt	a3,a4,800a6504 <__muldf3+0x5d4>
800a6438:	01f00693          	li	a3,31
800a643c:	06e6c463          	blt	a3,a4,800a64a4 <__muldf3+0x574>
800a6440:	41e50513          	addi	a0,a0,1054
800a6444:	00e7d633          	srl	a2,a5,a4
800a6448:	00a416b3          	sll	a3,s0,a0
800a644c:	00a79533          	sll	a0,a5,a0
800a6450:	00c6e6b3          	or	a3,a3,a2
800a6454:	00a03533          	snez	a0,a0
800a6458:	00a6e7b3          	or	a5,a3,a0
800a645c:	00e45733          	srl	a4,s0,a4
800a6460:	0077f693          	andi	a3,a5,7
800a6464:	02068063          	beqz	a3,800a6484 <__muldf3+0x554>
800a6468:	00f7f693          	andi	a3,a5,15
800a646c:	00400613          	li	a2,4
800a6470:	00c68a63          	beq	a3,a2,800a6484 <__muldf3+0x554>
800a6474:	00478693          	addi	a3,a5,4
800a6478:	00f6b633          	sltu	a2,a3,a5
800a647c:	00c70733          	add	a4,a4,a2
800a6480:	00068793          	mv	a5,a3
800a6484:	00871693          	slli	a3,a4,0x8
800a6488:	0806c463          	bltz	a3,800a6510 <__muldf3+0x5e0>
800a648c:	01d71693          	slli	a3,a4,0x1d
800a6490:	0037d793          	srli	a5,a5,0x3
800a6494:	00f6e6b3          	or	a3,a3,a5
800a6498:	00375713          	srli	a4,a4,0x3
800a649c:	00000613          	li	a2,0
800a64a0:	f19ff06f          	j	800a63b8 <__muldf3+0x488>
800a64a4:	fe100693          	li	a3,-31
800a64a8:	40c686b3          	sub	a3,a3,a2
800a64ac:	02000813          	li	a6,32
800a64b0:	00d456b3          	srl	a3,s0,a3
800a64b4:	00000613          	li	a2,0
800a64b8:	01070663          	beq	a4,a6,800a64c4 <__muldf3+0x594>
800a64bc:	43e50613          	addi	a2,a0,1086
800a64c0:	00c41633          	sll	a2,s0,a2
800a64c4:	00f66633          	or	a2,a2,a5
800a64c8:	00c03633          	snez	a2,a2
800a64cc:	00c6e7b3          	or	a5,a3,a2
800a64d0:	00000713          	li	a4,0
800a64d4:	f8dff06f          	j	800a6460 <__muldf3+0x530>
800a64d8:	00000713          	li	a4,0
800a64dc:	00000693          	li	a3,0
800a64e0:	7ff00613          	li	a2,2047
800a64e4:	ed5ff06f          	j	800a63b8 <__muldf3+0x488>
800a64e8:	00080737          	lui	a4,0x80
800a64ec:	7ff00613          	li	a2,2047
800a64f0:	00000593          	li	a1,0
800a64f4:	ec5ff06f          	j	800a63b8 <__muldf3+0x488>
800a64f8:	00080737          	lui	a4,0x80
800a64fc:	00000693          	li	a3,0
800a6500:	fedff06f          	j	800a64ec <__muldf3+0x5bc>
800a6504:	00000713          	li	a4,0
800a6508:	00000693          	li	a3,0
800a650c:	f91ff06f          	j	800a649c <__muldf3+0x56c>
800a6510:	00000713          	li	a4,0
800a6514:	00000693          	li	a3,0
800a6518:	00100613          	li	a2,1
800a651c:	e9dff06f          	j	800a63b8 <__muldf3+0x488>

800a6520 <__subdf3>:
800a6520:	00100837          	lui	a6,0x100
800a6524:	fff80813          	addi	a6,a6,-1 # fffff <__stack_size+0xff7ff>
800a6528:	fe010113          	addi	sp,sp,-32
800a652c:	00b878b3          	and	a7,a6,a1
800a6530:	0145d713          	srli	a4,a1,0x14
800a6534:	01d55793          	srli	a5,a0,0x1d
800a6538:	00d87833          	and	a6,a6,a3
800a653c:	01212823          	sw	s2,16(sp)
800a6540:	7ff77913          	andi	s2,a4,2047
800a6544:	00389713          	slli	a4,a7,0x3
800a6548:	0146d893          	srli	a7,a3,0x14
800a654c:	00912a23          	sw	s1,20(sp)
800a6550:	00e7e7b3          	or	a5,a5,a4
800a6554:	01f5d493          	srli	s1,a1,0x1f
800a6558:	01d65713          	srli	a4,a2,0x1d
800a655c:	00381813          	slli	a6,a6,0x3
800a6560:	00112e23          	sw	ra,28(sp)
800a6564:	00812c23          	sw	s0,24(sp)
800a6568:	01312623          	sw	s3,12(sp)
800a656c:	7ff8f893          	andi	a7,a7,2047
800a6570:	7ff00593          	li	a1,2047
800a6574:	00351513          	slli	a0,a0,0x3
800a6578:	01f6d693          	srli	a3,a3,0x1f
800a657c:	01076733          	or	a4,a4,a6
800a6580:	00361613          	slli	a2,a2,0x3
800a6584:	00b89663          	bne	a7,a1,800a6590 <__subdf3+0x70>
800a6588:	00c765b3          	or	a1,a4,a2
800a658c:	00059463          	bnez	a1,800a6594 <__subdf3+0x74>
800a6590:	0016c693          	xori	a3,a3,1
800a6594:	41190833          	sub	a6,s2,a7
800a6598:	2a969a63          	bne	a3,s1,800a684c <__subdf3+0x32c>
800a659c:	11005c63          	blez	a6,800a66b4 <__subdf3+0x194>
800a65a0:	04089063          	bnez	a7,800a65e0 <__subdf3+0xc0>
800a65a4:	00c766b3          	or	a3,a4,a2
800a65a8:	66068063          	beqz	a3,800a6c08 <__subdf3+0x6e8>
800a65ac:	fff80593          	addi	a1,a6,-1
800a65b0:	02059063          	bnez	a1,800a65d0 <__subdf3+0xb0>
800a65b4:	00c50633          	add	a2,a0,a2
800a65b8:	00a636b3          	sltu	a3,a2,a0
800a65bc:	00e78733          	add	a4,a5,a4
800a65c0:	00060513          	mv	a0,a2
800a65c4:	00d707b3          	add	a5,a4,a3
800a65c8:	00100913          	li	s2,1
800a65cc:	06c0006f          	j	800a6638 <__subdf3+0x118>
800a65d0:	7ff00693          	li	a3,2047
800a65d4:	02d81063          	bne	a6,a3,800a65f4 <__subdf3+0xd4>
800a65d8:	7ff00913          	li	s2,2047
800a65dc:	1f80006f          	j	800a67d4 <__subdf3+0x2b4>
800a65e0:	7ff00693          	li	a3,2047
800a65e4:	1ed90863          	beq	s2,a3,800a67d4 <__subdf3+0x2b4>
800a65e8:	008006b7          	lui	a3,0x800
800a65ec:	00d76733          	or	a4,a4,a3
800a65f0:	00080593          	mv	a1,a6
800a65f4:	03800693          	li	a3,56
800a65f8:	0ab6c863          	blt	a3,a1,800a66a8 <__subdf3+0x188>
800a65fc:	01f00693          	li	a3,31
800a6600:	06b6ca63          	blt	a3,a1,800a6674 <__subdf3+0x154>
800a6604:	02000813          	li	a6,32
800a6608:	40b80833          	sub	a6,a6,a1
800a660c:	010716b3          	sll	a3,a4,a6
800a6610:	00b658b3          	srl	a7,a2,a1
800a6614:	01061833          	sll	a6,a2,a6
800a6618:	0116e6b3          	or	a3,a3,a7
800a661c:	01003833          	snez	a6,a6
800a6620:	0106e6b3          	or	a3,a3,a6
800a6624:	00b755b3          	srl	a1,a4,a1
800a6628:	00a68533          	add	a0,a3,a0
800a662c:	00f585b3          	add	a1,a1,a5
800a6630:	00d536b3          	sltu	a3,a0,a3
800a6634:	00d587b3          	add	a5,a1,a3
800a6638:	00879713          	slli	a4,a5,0x8
800a663c:	18075c63          	bgez	a4,800a67d4 <__subdf3+0x2b4>
800a6640:	00190913          	addi	s2,s2,1
800a6644:	7ff00713          	li	a4,2047
800a6648:	5ae90a63          	beq	s2,a4,800a6bfc <__subdf3+0x6dc>
800a664c:	ff800737          	lui	a4,0xff800
800a6650:	fff70713          	addi	a4,a4,-1 # ff7fffff <__stack_top+0x7effe7ff>
800a6654:	00e7f733          	and	a4,a5,a4
800a6658:	00155793          	srli	a5,a0,0x1
800a665c:	00157513          	andi	a0,a0,1
800a6660:	00a7e7b3          	or	a5,a5,a0
800a6664:	01f71513          	slli	a0,a4,0x1f
800a6668:	00f56533          	or	a0,a0,a5
800a666c:	00175793          	srli	a5,a4,0x1
800a6670:	1640006f          	j	800a67d4 <__subdf3+0x2b4>
800a6674:	fe058693          	addi	a3,a1,-32
800a6678:	02000893          	li	a7,32
800a667c:	00d756b3          	srl	a3,a4,a3
800a6680:	00000813          	li	a6,0
800a6684:	01158863          	beq	a1,a7,800a6694 <__subdf3+0x174>
800a6688:	04000813          	li	a6,64
800a668c:	40b80833          	sub	a6,a6,a1
800a6690:	01071833          	sll	a6,a4,a6
800a6694:	00c86833          	or	a6,a6,a2
800a6698:	01003833          	snez	a6,a6
800a669c:	0106e6b3          	or	a3,a3,a6
800a66a0:	00000593          	li	a1,0
800a66a4:	f85ff06f          	j	800a6628 <__subdf3+0x108>
800a66a8:	00c766b3          	or	a3,a4,a2
800a66ac:	00d036b3          	snez	a3,a3
800a66b0:	ff1ff06f          	j	800a66a0 <__subdf3+0x180>
800a66b4:	0c080a63          	beqz	a6,800a6788 <__subdf3+0x268>
800a66b8:	412886b3          	sub	a3,a7,s2
800a66bc:	02091463          	bnez	s2,800a66e4 <__subdf3+0x1c4>
800a66c0:	00a7e5b3          	or	a1,a5,a0
800a66c4:	50058e63          	beqz	a1,800a6be0 <__subdf3+0x6c0>
800a66c8:	fff68593          	addi	a1,a3,-1 # 7fffff <__heap_size+0x5fffff>
800a66cc:	ee0584e3          	beqz	a1,800a65b4 <__subdf3+0x94>
800a66d0:	7ff00813          	li	a6,2047
800a66d4:	03069263          	bne	a3,a6,800a66f8 <__subdf3+0x1d8>
800a66d8:	00070793          	mv	a5,a4
800a66dc:	00060513          	mv	a0,a2
800a66e0:	ef9ff06f          	j	800a65d8 <__subdf3+0xb8>
800a66e4:	7ff00593          	li	a1,2047
800a66e8:	feb888e3          	beq	a7,a1,800a66d8 <__subdf3+0x1b8>
800a66ec:	008005b7          	lui	a1,0x800
800a66f0:	00b7e7b3          	or	a5,a5,a1
800a66f4:	00068593          	mv	a1,a3
800a66f8:	03800693          	li	a3,56
800a66fc:	08b6c063          	blt	a3,a1,800a677c <__subdf3+0x25c>
800a6700:	01f00693          	li	a3,31
800a6704:	04b6c263          	blt	a3,a1,800a6748 <__subdf3+0x228>
800a6708:	02000813          	li	a6,32
800a670c:	40b80833          	sub	a6,a6,a1
800a6710:	010796b3          	sll	a3,a5,a6
800a6714:	00b55333          	srl	t1,a0,a1
800a6718:	01051833          	sll	a6,a0,a6
800a671c:	0066e6b3          	or	a3,a3,t1
800a6720:	01003833          	snez	a6,a6
800a6724:	0106e6b3          	or	a3,a3,a6
800a6728:	00b7d5b3          	srl	a1,a5,a1
800a672c:	00c68633          	add	a2,a3,a2
800a6730:	00e585b3          	add	a1,a1,a4
800a6734:	00d636b3          	sltu	a3,a2,a3
800a6738:	00060513          	mv	a0,a2
800a673c:	00d587b3          	add	a5,a1,a3
800a6740:	00088913          	mv	s2,a7
800a6744:	ef5ff06f          	j	800a6638 <__subdf3+0x118>
800a6748:	fe058693          	addi	a3,a1,-32 # 7fffe0 <__heap_size+0x5fffe0>
800a674c:	02000313          	li	t1,32
800a6750:	00d7d6b3          	srl	a3,a5,a3
800a6754:	00000813          	li	a6,0
800a6758:	00658863          	beq	a1,t1,800a6768 <__subdf3+0x248>
800a675c:	04000813          	li	a6,64
800a6760:	40b80833          	sub	a6,a6,a1
800a6764:	01079833          	sll	a6,a5,a6
800a6768:	00a86833          	or	a6,a6,a0
800a676c:	01003833          	snez	a6,a6
800a6770:	0106e6b3          	or	a3,a3,a6
800a6774:	00000593          	li	a1,0
800a6778:	fb5ff06f          	j	800a672c <__subdf3+0x20c>
800a677c:	00a7e6b3          	or	a3,a5,a0
800a6780:	00d036b3          	snez	a3,a3
800a6784:	ff1ff06f          	j	800a6774 <__subdf3+0x254>
800a6788:	00190693          	addi	a3,s2,1
800a678c:	7fe6f593          	andi	a1,a3,2046
800a6790:	08059663          	bnez	a1,800a681c <__subdf3+0x2fc>
800a6794:	00a7e6b3          	or	a3,a5,a0
800a6798:	06091263          	bnez	s2,800a67fc <__subdf3+0x2dc>
800a679c:	44068863          	beqz	a3,800a6bec <__subdf3+0x6cc>
800a67a0:	00c766b3          	or	a3,a4,a2
800a67a4:	02068863          	beqz	a3,800a67d4 <__subdf3+0x2b4>
800a67a8:	00c50633          	add	a2,a0,a2
800a67ac:	00a636b3          	sltu	a3,a2,a0
800a67b0:	00e78733          	add	a4,a5,a4
800a67b4:	00d707b3          	add	a5,a4,a3
800a67b8:	00879713          	slli	a4,a5,0x8
800a67bc:	00060513          	mv	a0,a2
800a67c0:	00075a63          	bgez	a4,800a67d4 <__subdf3+0x2b4>
800a67c4:	ff800737          	lui	a4,0xff800
800a67c8:	fff70713          	addi	a4,a4,-1 # ff7fffff <__stack_top+0x7effe7ff>
800a67cc:	00e7f7b3          	and	a5,a5,a4
800a67d0:	00100913          	li	s2,1
800a67d4:	00757713          	andi	a4,a0,7
800a67d8:	44070863          	beqz	a4,800a6c28 <__subdf3+0x708>
800a67dc:	00f57713          	andi	a4,a0,15
800a67e0:	00400693          	li	a3,4
800a67e4:	44d70263          	beq	a4,a3,800a6c28 <__subdf3+0x708>
800a67e8:	00450713          	addi	a4,a0,4
800a67ec:	00a736b3          	sltu	a3,a4,a0
800a67f0:	00d787b3          	add	a5,a5,a3
800a67f4:	00070513          	mv	a0,a4
800a67f8:	4300006f          	j	800a6c28 <__subdf3+0x708>
800a67fc:	ec068ee3          	beqz	a3,800a66d8 <__subdf3+0x1b8>
800a6800:	00c76633          	or	a2,a4,a2
800a6804:	dc060ae3          	beqz	a2,800a65d8 <__subdf3+0xb8>
800a6808:	00000493          	li	s1,0
800a680c:	004007b7          	lui	a5,0x400
800a6810:	00000513          	li	a0,0
800a6814:	7ff00913          	li	s2,2047
800a6818:	4100006f          	j	800a6c28 <__subdf3+0x708>
800a681c:	7ff00593          	li	a1,2047
800a6820:	3cb68c63          	beq	a3,a1,800a6bf8 <__subdf3+0x6d8>
800a6824:	00c50633          	add	a2,a0,a2
800a6828:	00a63533          	sltu	a0,a2,a0
800a682c:	00e78733          	add	a4,a5,a4
800a6830:	00a70733          	add	a4,a4,a0
800a6834:	01f71513          	slli	a0,a4,0x1f
800a6838:	00165613          	srli	a2,a2,0x1
800a683c:	00c56533          	or	a0,a0,a2
800a6840:	00175793          	srli	a5,a4,0x1
800a6844:	00068913          	mv	s2,a3
800a6848:	f8dff06f          	j	800a67d4 <__subdf3+0x2b4>
800a684c:	0f005c63          	blez	a6,800a6944 <__subdf3+0x424>
800a6850:	08089e63          	bnez	a7,800a68ec <__subdf3+0x3cc>
800a6854:	00c766b3          	or	a3,a4,a2
800a6858:	3a068863          	beqz	a3,800a6c08 <__subdf3+0x6e8>
800a685c:	fff80693          	addi	a3,a6,-1
800a6860:	02069063          	bnez	a3,800a6880 <__subdf3+0x360>
800a6864:	40c50633          	sub	a2,a0,a2
800a6868:	00c536b3          	sltu	a3,a0,a2
800a686c:	40e78733          	sub	a4,a5,a4
800a6870:	00060513          	mv	a0,a2
800a6874:	40d707b3          	sub	a5,a4,a3
800a6878:	00100913          	li	s2,1
800a687c:	0540006f          	j	800a68d0 <__subdf3+0x3b0>
800a6880:	7ff00593          	li	a1,2047
800a6884:	d4b80ae3          	beq	a6,a1,800a65d8 <__subdf3+0xb8>
800a6888:	03800593          	li	a1,56
800a688c:	0ad5c663          	blt	a1,a3,800a6938 <__subdf3+0x418>
800a6890:	01f00593          	li	a1,31
800a6894:	06d5c863          	blt	a1,a3,800a6904 <__subdf3+0x3e4>
800a6898:	02000813          	li	a6,32
800a689c:	40d80833          	sub	a6,a6,a3
800a68a0:	00d658b3          	srl	a7,a2,a3
800a68a4:	010715b3          	sll	a1,a4,a6
800a68a8:	01061833          	sll	a6,a2,a6
800a68ac:	0115e5b3          	or	a1,a1,a7
800a68b0:	01003833          	snez	a6,a6
800a68b4:	0105e633          	or	a2,a1,a6
800a68b8:	00d756b3          	srl	a3,a4,a3
800a68bc:	40c50633          	sub	a2,a0,a2
800a68c0:	00c53733          	sltu	a4,a0,a2
800a68c4:	40d786b3          	sub	a3,a5,a3
800a68c8:	00060513          	mv	a0,a2
800a68cc:	40e687b3          	sub	a5,a3,a4
800a68d0:	00879713          	slli	a4,a5,0x8
800a68d4:	f00750e3          	bgez	a4,800a67d4 <__subdf3+0x2b4>
800a68d8:	00800437          	lui	s0,0x800
800a68dc:	fff40413          	addi	s0,s0,-1 # 7fffff <__heap_size+0x5fffff>
800a68e0:	0087f433          	and	s0,a5,s0
800a68e4:	00050993          	mv	s3,a0
800a68e8:	2100006f          	j	800a6af8 <__subdf3+0x5d8>
800a68ec:	7ff00693          	li	a3,2047
800a68f0:	eed902e3          	beq	s2,a3,800a67d4 <__subdf3+0x2b4>
800a68f4:	008006b7          	lui	a3,0x800
800a68f8:	00d76733          	or	a4,a4,a3
800a68fc:	00080693          	mv	a3,a6
800a6900:	f89ff06f          	j	800a6888 <__subdf3+0x368>
800a6904:	fe068593          	addi	a1,a3,-32 # 7fffe0 <__heap_size+0x5fffe0>
800a6908:	02000893          	li	a7,32
800a690c:	00b755b3          	srl	a1,a4,a1
800a6910:	00000813          	li	a6,0
800a6914:	01168863          	beq	a3,a7,800a6924 <__subdf3+0x404>
800a6918:	04000813          	li	a6,64
800a691c:	40d80833          	sub	a6,a6,a3
800a6920:	01071833          	sll	a6,a4,a6
800a6924:	00c86833          	or	a6,a6,a2
800a6928:	01003833          	snez	a6,a6
800a692c:	0105e633          	or	a2,a1,a6
800a6930:	00000693          	li	a3,0
800a6934:	f89ff06f          	j	800a68bc <__subdf3+0x39c>
800a6938:	00c76633          	or	a2,a4,a2
800a693c:	00c03633          	snez	a2,a2
800a6940:	ff1ff06f          	j	800a6930 <__subdf3+0x410>
800a6944:	0e080863          	beqz	a6,800a6a34 <__subdf3+0x514>
800a6948:	41288833          	sub	a6,a7,s2
800a694c:	04091263          	bnez	s2,800a6990 <__subdf3+0x470>
800a6950:	00a7e5b3          	or	a1,a5,a0
800a6954:	2a058e63          	beqz	a1,800a6c10 <__subdf3+0x6f0>
800a6958:	fff80593          	addi	a1,a6,-1
800a695c:	00059e63          	bnez	a1,800a6978 <__subdf3+0x458>
800a6960:	40a60533          	sub	a0,a2,a0
800a6964:	40f70733          	sub	a4,a4,a5
800a6968:	00a63633          	sltu	a2,a2,a0
800a696c:	40c707b3          	sub	a5,a4,a2
800a6970:	00068493          	mv	s1,a3
800a6974:	f05ff06f          	j	800a6878 <__subdf3+0x358>
800a6978:	7ff00313          	li	t1,2047
800a697c:	02681463          	bne	a6,t1,800a69a4 <__subdf3+0x484>
800a6980:	00070793          	mv	a5,a4
800a6984:	00060513          	mv	a0,a2
800a6988:	7ff00913          	li	s2,2047
800a698c:	0d00006f          	j	800a6a5c <__subdf3+0x53c>
800a6990:	7ff00593          	li	a1,2047
800a6994:	feb886e3          	beq	a7,a1,800a6980 <__subdf3+0x460>
800a6998:	008005b7          	lui	a1,0x800
800a699c:	00b7e7b3          	or	a5,a5,a1
800a69a0:	00080593          	mv	a1,a6
800a69a4:	03800813          	li	a6,56
800a69a8:	08b84063          	blt	a6,a1,800a6a28 <__subdf3+0x508>
800a69ac:	01f00813          	li	a6,31
800a69b0:	04b84263          	blt	a6,a1,800a69f4 <__subdf3+0x4d4>
800a69b4:	02000313          	li	t1,32
800a69b8:	40b30333          	sub	t1,t1,a1
800a69bc:	00b55e33          	srl	t3,a0,a1
800a69c0:	00679833          	sll	a6,a5,t1
800a69c4:	00651333          	sll	t1,a0,t1
800a69c8:	01c86833          	or	a6,a6,t3
800a69cc:	00603333          	snez	t1,t1
800a69d0:	00686533          	or	a0,a6,t1
800a69d4:	00b7d5b3          	srl	a1,a5,a1
800a69d8:	40a60533          	sub	a0,a2,a0
800a69dc:	40b705b3          	sub	a1,a4,a1
800a69e0:	00a63633          	sltu	a2,a2,a0
800a69e4:	40c587b3          	sub	a5,a1,a2
800a69e8:	00088913          	mv	s2,a7
800a69ec:	00068493          	mv	s1,a3
800a69f0:	ee1ff06f          	j	800a68d0 <__subdf3+0x3b0>
800a69f4:	fe058813          	addi	a6,a1,-32 # 7fffe0 <__heap_size+0x5fffe0>
800a69f8:	02000e13          	li	t3,32
800a69fc:	0107d833          	srl	a6,a5,a6
800a6a00:	00000313          	li	t1,0
800a6a04:	01c58863          	beq	a1,t3,800a6a14 <__subdf3+0x4f4>
800a6a08:	04000313          	li	t1,64
800a6a0c:	40b30333          	sub	t1,t1,a1
800a6a10:	00679333          	sll	t1,a5,t1
800a6a14:	00a36333          	or	t1,t1,a0
800a6a18:	00603333          	snez	t1,t1
800a6a1c:	00686533          	or	a0,a6,t1
800a6a20:	00000593          	li	a1,0
800a6a24:	fb5ff06f          	j	800a69d8 <__subdf3+0x4b8>
800a6a28:	00a7e533          	or	a0,a5,a0
800a6a2c:	00a03533          	snez	a0,a0
800a6a30:	ff1ff06f          	j	800a6a20 <__subdf3+0x500>
800a6a34:	00190593          	addi	a1,s2,1
800a6a38:	7fe5f593          	andi	a1,a1,2046
800a6a3c:	08059663          	bnez	a1,800a6ac8 <__subdf3+0x5a8>
800a6a40:	00c765b3          	or	a1,a4,a2
800a6a44:	00a7e833          	or	a6,a5,a0
800a6a48:	06091063          	bnez	s2,800a6aa8 <__subdf3+0x588>
800a6a4c:	00081c63          	bnez	a6,800a6a64 <__subdf3+0x544>
800a6a50:	10058e63          	beqz	a1,800a6b6c <__subdf3+0x64c>
800a6a54:	00070793          	mv	a5,a4
800a6a58:	00060513          	mv	a0,a2
800a6a5c:	00068493          	mv	s1,a3
800a6a60:	d75ff06f          	j	800a67d4 <__subdf3+0x2b4>
800a6a64:	d60588e3          	beqz	a1,800a67d4 <__subdf3+0x2b4>
800a6a68:	40c50833          	sub	a6,a0,a2
800a6a6c:	010538b3          	sltu	a7,a0,a6
800a6a70:	40e785b3          	sub	a1,a5,a4
800a6a74:	411585b3          	sub	a1,a1,a7
800a6a78:	00859893          	slli	a7,a1,0x8
800a6a7c:	0008dc63          	bgez	a7,800a6a94 <__subdf3+0x574>
800a6a80:	40a60533          	sub	a0,a2,a0
800a6a84:	40f70733          	sub	a4,a4,a5
800a6a88:	00a63633          	sltu	a2,a2,a0
800a6a8c:	40c707b3          	sub	a5,a4,a2
800a6a90:	fcdff06f          	j	800a6a5c <__subdf3+0x53c>
800a6a94:	00b86533          	or	a0,a6,a1
800a6a98:	18050463          	beqz	a0,800a6c20 <__subdf3+0x700>
800a6a9c:	00058793          	mv	a5,a1
800a6aa0:	00080513          	mv	a0,a6
800a6aa4:	d31ff06f          	j	800a67d4 <__subdf3+0x2b4>
800a6aa8:	00081c63          	bnez	a6,800a6ac0 <__subdf3+0x5a0>
800a6aac:	d4058ee3          	beqz	a1,800a6808 <__subdf3+0x2e8>
800a6ab0:	00070793          	mv	a5,a4
800a6ab4:	00060513          	mv	a0,a2
800a6ab8:	00068493          	mv	s1,a3
800a6abc:	b1dff06f          	j	800a65d8 <__subdf3+0xb8>
800a6ac0:	b0058ce3          	beqz	a1,800a65d8 <__subdf3+0xb8>
800a6ac4:	d45ff06f          	j	800a6808 <__subdf3+0x2e8>
800a6ac8:	40c505b3          	sub	a1,a0,a2
800a6acc:	00b53833          	sltu	a6,a0,a1
800a6ad0:	40e78433          	sub	s0,a5,a4
800a6ad4:	41040433          	sub	s0,s0,a6
800a6ad8:	00841813          	slli	a6,s0,0x8
800a6adc:	00058993          	mv	s3,a1
800a6ae0:	08085063          	bgez	a6,800a6b60 <__subdf3+0x640>
800a6ae4:	40a609b3          	sub	s3,a2,a0
800a6ae8:	40f70433          	sub	s0,a4,a5
800a6aec:	01363633          	sltu	a2,a2,s3
800a6af0:	40c40433          	sub	s0,s0,a2
800a6af4:	00068493          	mv	s1,a3
800a6af8:	06040e63          	beqz	s0,800a6b74 <__subdf3+0x654>
800a6afc:	00040513          	mv	a0,s0
800a6b00:	6bc010ef          	jal	800a81bc <__clzsi2>
800a6b04:	ff850693          	addi	a3,a0,-8
800a6b08:	02000793          	li	a5,32
800a6b0c:	40d787b3          	sub	a5,a5,a3
800a6b10:	00d41433          	sll	s0,s0,a3
800a6b14:	00f9d7b3          	srl	a5,s3,a5
800a6b18:	0087e7b3          	or	a5,a5,s0
800a6b1c:	00d99433          	sll	s0,s3,a3
800a6b20:	0b26c463          	blt	a3,s2,800a6bc8 <__subdf3+0x6a8>
800a6b24:	412686b3          	sub	a3,a3,s2
800a6b28:	00168613          	addi	a2,a3,1
800a6b2c:	01f00713          	li	a4,31
800a6b30:	06c74263          	blt	a4,a2,800a6b94 <__subdf3+0x674>
800a6b34:	02000713          	li	a4,32
800a6b38:	40c70733          	sub	a4,a4,a2
800a6b3c:	00e79533          	sll	a0,a5,a4
800a6b40:	00c456b3          	srl	a3,s0,a2
800a6b44:	00e41733          	sll	a4,s0,a4
800a6b48:	00d56533          	or	a0,a0,a3
800a6b4c:	00e03733          	snez	a4,a4
800a6b50:	00e56533          	or	a0,a0,a4
800a6b54:	00c7d7b3          	srl	a5,a5,a2
800a6b58:	00000913          	li	s2,0
800a6b5c:	c79ff06f          	j	800a67d4 <__subdf3+0x2b4>
800a6b60:	0085e5b3          	or	a1,a1,s0
800a6b64:	f8059ae3          	bnez	a1,800a6af8 <__subdf3+0x5d8>
800a6b68:	00000913          	li	s2,0
800a6b6c:	00000493          	li	s1,0
800a6b70:	08c0006f          	j	800a6bfc <__subdf3+0x6dc>
800a6b74:	00098513          	mv	a0,s3
800a6b78:	644010ef          	jal	800a81bc <__clzsi2>
800a6b7c:	01850693          	addi	a3,a0,24
800a6b80:	01f00793          	li	a5,31
800a6b84:	f8d7d2e3          	bge	a5,a3,800a6b08 <__subdf3+0x5e8>
800a6b88:	ff850793          	addi	a5,a0,-8
800a6b8c:	00f997b3          	sll	a5,s3,a5
800a6b90:	f91ff06f          	j	800a6b20 <__subdf3+0x600>
800a6b94:	fe168693          	addi	a3,a3,-31
800a6b98:	00d7d533          	srl	a0,a5,a3
800a6b9c:	02000693          	li	a3,32
800a6ba0:	00000713          	li	a4,0
800a6ba4:	00d60863          	beq	a2,a3,800a6bb4 <__subdf3+0x694>
800a6ba8:	04000713          	li	a4,64
800a6bac:	40c70733          	sub	a4,a4,a2
800a6bb0:	00e79733          	sll	a4,a5,a4
800a6bb4:	00e46733          	or	a4,s0,a4
800a6bb8:	00e03733          	snez	a4,a4
800a6bbc:	00e56533          	or	a0,a0,a4
800a6bc0:	00000793          	li	a5,0
800a6bc4:	f95ff06f          	j	800a6b58 <__subdf3+0x638>
800a6bc8:	ff800737          	lui	a4,0xff800
800a6bcc:	fff70713          	addi	a4,a4,-1 # ff7fffff <__stack_top+0x7effe7ff>
800a6bd0:	40d90933          	sub	s2,s2,a3
800a6bd4:	00e7f7b3          	and	a5,a5,a4
800a6bd8:	00040513          	mv	a0,s0
800a6bdc:	bf9ff06f          	j	800a67d4 <__subdf3+0x2b4>
800a6be0:	00070793          	mv	a5,a4
800a6be4:	00060513          	mv	a0,a2
800a6be8:	c5dff06f          	j	800a6844 <__subdf3+0x324>
800a6bec:	00070793          	mv	a5,a4
800a6bf0:	00060513          	mv	a0,a2
800a6bf4:	be1ff06f          	j	800a67d4 <__subdf3+0x2b4>
800a6bf8:	7ff00913          	li	s2,2047
800a6bfc:	00000793          	li	a5,0
800a6c00:	00000513          	li	a0,0
800a6c04:	0240006f          	j	800a6c28 <__subdf3+0x708>
800a6c08:	00080913          	mv	s2,a6
800a6c0c:	bc9ff06f          	j	800a67d4 <__subdf3+0x2b4>
800a6c10:	00070793          	mv	a5,a4
800a6c14:	00060513          	mv	a0,a2
800a6c18:	00080913          	mv	s2,a6
800a6c1c:	e41ff06f          	j	800a6a5c <__subdf3+0x53c>
800a6c20:	00000793          	li	a5,0
800a6c24:	00000493          	li	s1,0
800a6c28:	00879713          	slli	a4,a5,0x8
800a6c2c:	00075e63          	bgez	a4,800a6c48 <__subdf3+0x728>
800a6c30:	00190913          	addi	s2,s2,1
800a6c34:	7ff00713          	li	a4,2047
800a6c38:	08e90263          	beq	s2,a4,800a6cbc <__subdf3+0x79c>
800a6c3c:	ff800737          	lui	a4,0xff800
800a6c40:	fff70713          	addi	a4,a4,-1 # ff7fffff <__stack_top+0x7effe7ff>
800a6c44:	00e7f7b3          	and	a5,a5,a4
800a6c48:	01d79693          	slli	a3,a5,0x1d
800a6c4c:	00355513          	srli	a0,a0,0x3
800a6c50:	7ff00713          	li	a4,2047
800a6c54:	00a6e6b3          	or	a3,a3,a0
800a6c58:	0037d793          	srli	a5,a5,0x3
800a6c5c:	00e91e63          	bne	s2,a4,800a6c78 <__subdf3+0x758>
800a6c60:	00f6e6b3          	or	a3,a3,a5
800a6c64:	00000793          	li	a5,0
800a6c68:	00068863          	beqz	a3,800a6c78 <__subdf3+0x758>
800a6c6c:	000807b7          	lui	a5,0x80
800a6c70:	00000693          	li	a3,0
800a6c74:	00000493          	li	s1,0
800a6c78:	01491713          	slli	a4,s2,0x14
800a6c7c:	7ff00637          	lui	a2,0x7ff00
800a6c80:	00c79793          	slli	a5,a5,0xc
800a6c84:	00c77733          	and	a4,a4,a2
800a6c88:	01c12083          	lw	ra,28(sp)
800a6c8c:	01812403          	lw	s0,24(sp)
800a6c90:	00c7d793          	srli	a5,a5,0xc
800a6c94:	00f767b3          	or	a5,a4,a5
800a6c98:	01f49713          	slli	a4,s1,0x1f
800a6c9c:	00e7e633          	or	a2,a5,a4
800a6ca0:	01412483          	lw	s1,20(sp)
800a6ca4:	01012903          	lw	s2,16(sp)
800a6ca8:	00c12983          	lw	s3,12(sp)
800a6cac:	00068513          	mv	a0,a3
800a6cb0:	00060593          	mv	a1,a2
800a6cb4:	02010113          	addi	sp,sp,32
800a6cb8:	00008067          	ret
800a6cbc:	00000793          	li	a5,0
800a6cc0:	00000513          	li	a0,0
800a6cc4:	f85ff06f          	j	800a6c48 <__subdf3+0x728>

800a6cc8 <__fixunsdfsi>:
800a6cc8:	0145d713          	srli	a4,a1,0x14
800a6ccc:	00100837          	lui	a6,0x100
800a6cd0:	fff80793          	addi	a5,a6,-1 # fffff <__stack_size+0xff7ff>
800a6cd4:	7ff77713          	andi	a4,a4,2047
800a6cd8:	3fe00613          	li	a2,1022
800a6cdc:	00b7f7b3          	and	a5,a5,a1
800a6ce0:	00050693          	mv	a3,a0
800a6ce4:	01f5d593          	srli	a1,a1,0x1f
800a6ce8:	04e65a63          	bge	a2,a4,800a6d3c <__fixunsdfsi+0x74>
800a6cec:	0015c613          	xori	a2,a1,1
800a6cf0:	41e60613          	addi	a2,a2,1054 # 7ff0041e <__heap_size+0x7fd0041e>
800a6cf4:	fff58513          	addi	a0,a1,-1
800a6cf8:	04c75463          	bge	a4,a2,800a6d40 <__fixunsdfsi+0x78>
800a6cfc:	00000513          	li	a0,0
800a6d00:	04059063          	bnez	a1,800a6d40 <__fixunsdfsi+0x78>
800a6d04:	43300613          	li	a2,1075
800a6d08:	40e60633          	sub	a2,a2,a4
800a6d0c:	01f00593          	li	a1,31
800a6d10:	0107e7b3          	or	a5,a5,a6
800a6d14:	00c5cc63          	blt	a1,a2,800a6d2c <__fixunsdfsi+0x64>
800a6d18:	bed70713          	addi	a4,a4,-1043
800a6d1c:	00e797b3          	sll	a5,a5,a4
800a6d20:	00c6d533          	srl	a0,a3,a2
800a6d24:	00a7e533          	or	a0,a5,a0
800a6d28:	00008067          	ret
800a6d2c:	41300693          	li	a3,1043
800a6d30:	40e68733          	sub	a4,a3,a4
800a6d34:	00e7d533          	srl	a0,a5,a4
800a6d38:	00008067          	ret
800a6d3c:	00000513          	li	a0,0
800a6d40:	00008067          	ret

800a6d44 <__floatunsidf>:
800a6d44:	ff010113          	addi	sp,sp,-16
800a6d48:	00812423          	sw	s0,8(sp)
800a6d4c:	00112623          	sw	ra,12(sp)
800a6d50:	00050413          	mv	s0,a0
800a6d54:	06050263          	beqz	a0,800a6db8 <__floatunsidf+0x74>
800a6d58:	464010ef          	jal	800a81bc <__clzsi2>
800a6d5c:	41e00713          	li	a4,1054
800a6d60:	00a00793          	li	a5,10
800a6d64:	40a70733          	sub	a4,a4,a0
800a6d68:	04a7c063          	blt	a5,a0,800a6da8 <__floatunsidf+0x64>
800a6d6c:	00b00793          	li	a5,11
800a6d70:	40a787b3          	sub	a5,a5,a0
800a6d74:	01550513          	addi	a0,a0,21
800a6d78:	00f457b3          	srl	a5,s0,a5
800a6d7c:	00a41433          	sll	s0,s0,a0
800a6d80:	00c12083          	lw	ra,12(sp)
800a6d84:	00040513          	mv	a0,s0
800a6d88:	00c79793          	slli	a5,a5,0xc
800a6d8c:	00812403          	lw	s0,8(sp)
800a6d90:	01471713          	slli	a4,a4,0x14
800a6d94:	00c7d793          	srli	a5,a5,0xc
800a6d98:	00f766b3          	or	a3,a4,a5
800a6d9c:	00068593          	mv	a1,a3
800a6da0:	01010113          	addi	sp,sp,16
800a6da4:	00008067          	ret
800a6da8:	ff550513          	addi	a0,a0,-11
800a6dac:	00a417b3          	sll	a5,s0,a0
800a6db0:	00000413          	li	s0,0
800a6db4:	fcdff06f          	j	800a6d80 <__floatunsidf+0x3c>
800a6db8:	00000793          	li	a5,0
800a6dbc:	00000713          	li	a4,0
800a6dc0:	fc1ff06f          	j	800a6d80 <__floatunsidf+0x3c>

800a6dc4 <__fixunsdfdi>:
800a6dc4:	001006b7          	lui	a3,0x100
800a6dc8:	0145d613          	srli	a2,a1,0x14
800a6dcc:	fff68793          	addi	a5,a3,-1 # fffff <__stack_size+0xff7ff>
800a6dd0:	7ff67613          	andi	a2,a2,2047
800a6dd4:	3fe00713          	li	a4,1022
800a6dd8:	00b7f7b3          	and	a5,a5,a1
800a6ddc:	08c75463          	bge	a4,a2,800a6e64 <__fixunsdfdi+0xa0>
800a6de0:	01f5d593          	srli	a1,a1,0x1f
800a6de4:	0015c713          	xori	a4,a1,1
800a6de8:	43e70713          	addi	a4,a4,1086
800a6dec:	02e65863          	bge	a2,a4,800a6e1c <__fixunsdfdi+0x58>
800a6df0:	06059a63          	bnez	a1,800a6e64 <__fixunsdfdi+0xa0>
800a6df4:	00d7e5b3          	or	a1,a5,a3
800a6df8:	43200793          	li	a5,1074
800a6dfc:	02c7d663          	bge	a5,a2,800a6e28 <__fixunsdfdi+0x64>
800a6e00:	ff010113          	addi	sp,sp,-16
800a6e04:	bcd60613          	addi	a2,a2,-1075
800a6e08:	00112623          	sw	ra,12(sp)
800a6e0c:	378010ef          	jal	800a8184 <__ashldi3>
800a6e10:	00c12083          	lw	ra,12(sp)
800a6e14:	01010113          	addi	sp,sp,16
800a6e18:	00008067          	ret
800a6e1c:	fff58513          	addi	a0,a1,-1
800a6e20:	00050593          	mv	a1,a0
800a6e24:	00008067          	ret
800a6e28:	43300793          	li	a5,1075
800a6e2c:	40c787b3          	sub	a5,a5,a2
800a6e30:	01f00713          	li	a4,31
800a6e34:	00f74e63          	blt	a4,a5,800a6e50 <__fixunsdfdi+0x8c>
800a6e38:	bed60613          	addi	a2,a2,-1043
800a6e3c:	00c59633          	sll	a2,a1,a2
800a6e40:	00f55533          	srl	a0,a0,a5
800a6e44:	00a66533          	or	a0,a2,a0
800a6e48:	00f5d5b3          	srl	a1,a1,a5
800a6e4c:	00008067          	ret
800a6e50:	41300513          	li	a0,1043
800a6e54:	40c50533          	sub	a0,a0,a2
800a6e58:	00a5d533          	srl	a0,a1,a0
800a6e5c:	00000593          	li	a1,0
800a6e60:	00008067          	ret
800a6e64:	00000513          	li	a0,0
800a6e68:	ff5ff06f          	j	800a6e5c <__fixunsdfdi+0x98>

800a6e6c <__addsf3>:
800a6e6c:	008006b7          	lui	a3,0x800
800a6e70:	fff68693          	addi	a3,a3,-1 # 7fffff <__heap_size+0x5fffff>
800a6e74:	ff010113          	addi	sp,sp,-16
800a6e78:	00a6f633          	and	a2,a3,a0
800a6e7c:	01755713          	srli	a4,a0,0x17
800a6e80:	00812423          	sw	s0,8(sp)
800a6e84:	01f55413          	srli	s0,a0,0x1f
800a6e88:	00361513          	slli	a0,a2,0x3
800a6e8c:	0175d613          	srli	a2,a1,0x17
800a6e90:	00b6f6b3          	and	a3,a3,a1
800a6e94:	01212023          	sw	s2,0(sp)
800a6e98:	0ff67613          	zext.b	a2,a2
800a6e9c:	0ff77913          	zext.b	s2,a4
800a6ea0:	00112623          	sw	ra,12(sp)
800a6ea4:	00912223          	sw	s1,4(sp)
800a6ea8:	01f5d593          	srli	a1,a1,0x1f
800a6eac:	00369793          	slli	a5,a3,0x3
800a6eb0:	40c906b3          	sub	a3,s2,a2
800a6eb4:	18b41063          	bne	s0,a1,800a7034 <__addsf3+0x1c8>
800a6eb8:	08d05c63          	blez	a3,800a6f50 <__addsf3+0xe4>
800a6ebc:	02061663          	bnez	a2,800a6ee8 <__addsf3+0x7c>
800a6ec0:	02078063          	beqz	a5,800a6ee0 <__addsf3+0x74>
800a6ec4:	fff90693          	addi	a3,s2,-1
800a6ec8:	00069863          	bnez	a3,800a6ed8 <__addsf3+0x6c>
800a6ecc:	00a787b3          	add	a5,a5,a0
800a6ed0:	00100913          	li	s2,1
800a6ed4:	04c0006f          	j	800a6f20 <__addsf3+0xb4>
800a6ed8:	0ff00713          	li	a4,255
800a6edc:	00e91e63          	bne	s2,a4,800a6ef8 <__addsf3+0x8c>
800a6ee0:	00050793          	mv	a5,a0
800a6ee4:	10c0006f          	j	800a6ff0 <__addsf3+0x184>
800a6ee8:	0ff00713          	li	a4,255
800a6eec:	fee90ae3          	beq	s2,a4,800a6ee0 <__addsf3+0x74>
800a6ef0:	04000737          	lui	a4,0x4000
800a6ef4:	00e7e7b3          	or	a5,a5,a4
800a6ef8:	01b00613          	li	a2,27
800a6efc:	00100713          	li	a4,1
800a6f00:	00d64e63          	blt	a2,a3,800a6f1c <__addsf3+0xb0>
800a6f04:	02000613          	li	a2,32
800a6f08:	00d7d733          	srl	a4,a5,a3
800a6f0c:	40d606b3          	sub	a3,a2,a3
800a6f10:	00d796b3          	sll	a3,a5,a3
800a6f14:	00d036b3          	snez	a3,a3
800a6f18:	00d76733          	or	a4,a4,a3
800a6f1c:	00a707b3          	add	a5,a4,a0
800a6f20:	00579713          	slli	a4,a5,0x5
800a6f24:	0c075663          	bgez	a4,800a6ff0 <__addsf3+0x184>
800a6f28:	00190913          	addi	s2,s2,1
800a6f2c:	0ff00713          	li	a4,255
800a6f30:	2ce90a63          	beq	s2,a4,800a7204 <__addsf3+0x398>
800a6f34:	7e000737          	lui	a4,0x7e000
800a6f38:	0017f693          	andi	a3,a5,1
800a6f3c:	fff70713          	addi	a4,a4,-1 # 7dffffff <__heap_size+0x7ddfffff>
800a6f40:	0017d793          	srli	a5,a5,0x1
800a6f44:	00e7f7b3          	and	a5,a5,a4
800a6f48:	00d7e7b3          	or	a5,a5,a3
800a6f4c:	0a40006f          	j	800a6ff0 <__addsf3+0x184>
800a6f50:	06068663          	beqz	a3,800a6fbc <__addsf3+0x150>
800a6f54:	41260733          	sub	a4,a2,s2
800a6f58:	02091063          	bnez	s2,800a6f78 <__addsf3+0x10c>
800a6f5c:	0c050863          	beqz	a0,800a702c <__addsf3+0x1c0>
800a6f60:	fff70693          	addi	a3,a4,-1
800a6f64:	f60684e3          	beqz	a3,800a6ecc <__addsf3+0x60>
800a6f68:	0ff00593          	li	a1,255
800a6f6c:	02b71063          	bne	a4,a1,800a6f8c <__addsf3+0x120>
800a6f70:	0ff00913          	li	s2,255
800a6f74:	07c0006f          	j	800a6ff0 <__addsf3+0x184>
800a6f78:	0ff00693          	li	a3,255
800a6f7c:	fed60ae3          	beq	a2,a3,800a6f70 <__addsf3+0x104>
800a6f80:	040006b7          	lui	a3,0x4000
800a6f84:	00d56533          	or	a0,a0,a3
800a6f88:	00070693          	mv	a3,a4
800a6f8c:	01b00593          	li	a1,27
800a6f90:	00100713          	li	a4,1
800a6f94:	00d5ce63          	blt	a1,a3,800a6fb0 <__addsf3+0x144>
800a6f98:	02000713          	li	a4,32
800a6f9c:	40d70733          	sub	a4,a4,a3
800a6fa0:	00e51733          	sll	a4,a0,a4
800a6fa4:	00d555b3          	srl	a1,a0,a3
800a6fa8:	00e03733          	snez	a4,a4
800a6fac:	00e5e733          	or	a4,a1,a4
800a6fb0:	00e787b3          	add	a5,a5,a4
800a6fb4:	00060913          	mv	s2,a2
800a6fb8:	f69ff06f          	j	800a6f20 <__addsf3+0xb4>
800a6fbc:	00190713          	addi	a4,s2,1
800a6fc0:	0fe77693          	andi	a3,a4,254
800a6fc4:	04069c63          	bnez	a3,800a701c <__addsf3+0x1b0>
800a6fc8:	04091263          	bnez	s2,800a700c <__addsf3+0x1a0>
800a6fcc:	02050263          	beqz	a0,800a6ff0 <__addsf3+0x184>
800a6fd0:	f00788e3          	beqz	a5,800a6ee0 <__addsf3+0x74>
800a6fd4:	00a787b3          	add	a5,a5,a0
800a6fd8:	00579713          	slli	a4,a5,0x5
800a6fdc:	00075a63          	bgez	a4,800a6ff0 <__addsf3+0x184>
800a6fe0:	fc000737          	lui	a4,0xfc000
800a6fe4:	fff70713          	addi	a4,a4,-1 # fbffffff <__stack_top+0x7b7fe7ff>
800a6fe8:	00e7f7b3          	and	a5,a5,a4
800a6fec:	00100913          	li	s2,1
800a6ff0:	0077f713          	andi	a4,a5,7
800a6ff4:	20070a63          	beqz	a4,800a7208 <__addsf3+0x39c>
800a6ff8:	00f7f713          	andi	a4,a5,15
800a6ffc:	00400693          	li	a3,4
800a7000:	20d70463          	beq	a4,a3,800a7208 <__addsf3+0x39c>
800a7004:	00478793          	addi	a5,a5,4 # 80004 <__stack_size+0x7f804>
800a7008:	2000006f          	j	800a7208 <__addsf3+0x39c>
800a700c:	f60502e3          	beqz	a0,800a6f70 <__addsf3+0x104>
800a7010:	16079663          	bnez	a5,800a717c <__addsf3+0x310>
800a7014:	00050793          	mv	a5,a0
800a7018:	f59ff06f          	j	800a6f70 <__addsf3+0x104>
800a701c:	0ff00693          	li	a3,255
800a7020:	1ed70063          	beq	a4,a3,800a7200 <__addsf3+0x394>
800a7024:	00f507b3          	add	a5,a0,a5
800a7028:	0017d793          	srli	a5,a5,0x1
800a702c:	00070913          	mv	s2,a4
800a7030:	fc1ff06f          	j	800a6ff0 <__addsf3+0x184>
800a7034:	06d05e63          	blez	a3,800a70b0 <__addsf3+0x244>
800a7038:	06061263          	bnez	a2,800a709c <__addsf3+0x230>
800a703c:	ea0782e3          	beqz	a5,800a6ee0 <__addsf3+0x74>
800a7040:	fff90693          	addi	a3,s2,-1
800a7044:	00069863          	bnez	a3,800a7054 <__addsf3+0x1e8>
800a7048:	40f507b3          	sub	a5,a0,a5
800a704c:	00100913          	li	s2,1
800a7050:	0340006f          	j	800a7084 <__addsf3+0x218>
800a7054:	0ff00713          	li	a4,255
800a7058:	e8e904e3          	beq	s2,a4,800a6ee0 <__addsf3+0x74>
800a705c:	01b00613          	li	a2,27
800a7060:	00100713          	li	a4,1
800a7064:	00d64e63          	blt	a2,a3,800a7080 <__addsf3+0x214>
800a7068:	02000613          	li	a2,32
800a706c:	00d7d733          	srl	a4,a5,a3
800a7070:	40d606b3          	sub	a3,a2,a3
800a7074:	00d796b3          	sll	a3,a5,a3
800a7078:	00d036b3          	snez	a3,a3
800a707c:	00d76733          	or	a4,a4,a3
800a7080:	40e507b3          	sub	a5,a0,a4
800a7084:	00579713          	slli	a4,a5,0x5
800a7088:	f60754e3          	bgez	a4,800a6ff0 <__addsf3+0x184>
800a708c:	040004b7          	lui	s1,0x4000
800a7090:	fff48493          	addi	s1,s1,-1 # 3ffffff <__heap_size+0x3dfffff>
800a7094:	0097f4b3          	and	s1,a5,s1
800a7098:	1080006f          	j	800a71a0 <__addsf3+0x334>
800a709c:	0ff00713          	li	a4,255
800a70a0:	e4e900e3          	beq	s2,a4,800a6ee0 <__addsf3+0x74>
800a70a4:	04000737          	lui	a4,0x4000
800a70a8:	00e7e7b3          	or	a5,a5,a4
800a70ac:	fb1ff06f          	j	800a705c <__addsf3+0x1f0>
800a70b0:	06068e63          	beqz	a3,800a712c <__addsf3+0x2c0>
800a70b4:	41260733          	sub	a4,a2,s2
800a70b8:	02091663          	bnez	s2,800a70e4 <__addsf3+0x278>
800a70bc:	1a050e63          	beqz	a0,800a7278 <__addsf3+0x40c>
800a70c0:	fff70693          	addi	a3,a4,-1 # 3ffffff <__heap_size+0x3dfffff>
800a70c4:	00069863          	bnez	a3,800a70d4 <__addsf3+0x268>
800a70c8:	40a787b3          	sub	a5,a5,a0
800a70cc:	00058413          	mv	s0,a1
800a70d0:	f7dff06f          	j	800a704c <__addsf3+0x1e0>
800a70d4:	0ff00813          	li	a6,255
800a70d8:	03071063          	bne	a4,a6,800a70f8 <__addsf3+0x28c>
800a70dc:	0ff00913          	li	s2,255
800a70e0:	19c0006f          	j	800a727c <__addsf3+0x410>
800a70e4:	0ff00693          	li	a3,255
800a70e8:	fed60ae3          	beq	a2,a3,800a70dc <__addsf3+0x270>
800a70ec:	040006b7          	lui	a3,0x4000
800a70f0:	00d56533          	or	a0,a0,a3
800a70f4:	00070693          	mv	a3,a4
800a70f8:	01b00813          	li	a6,27
800a70fc:	00100713          	li	a4,1
800a7100:	00d84e63          	blt	a6,a3,800a711c <__addsf3+0x2b0>
800a7104:	02000713          	li	a4,32
800a7108:	40d70733          	sub	a4,a4,a3
800a710c:	00e51733          	sll	a4,a0,a4
800a7110:	00d55833          	srl	a6,a0,a3
800a7114:	00e03733          	snez	a4,a4
800a7118:	00e86733          	or	a4,a6,a4
800a711c:	40e787b3          	sub	a5,a5,a4
800a7120:	00060913          	mv	s2,a2
800a7124:	00058413          	mv	s0,a1
800a7128:	f5dff06f          	j	800a7084 <__addsf3+0x218>
800a712c:	00190713          	addi	a4,s2,1
800a7130:	0fe77713          	andi	a4,a4,254
800a7134:	04071c63          	bnez	a4,800a718c <__addsf3+0x320>
800a7138:	02091c63          	bnez	s2,800a7170 <__addsf3+0x304>
800a713c:	00051863          	bnez	a0,800a714c <__addsf3+0x2e0>
800a7140:	12079e63          	bnez	a5,800a727c <__addsf3+0x410>
800a7144:	00000413          	li	s0,0
800a7148:	0c00006f          	j	800a7208 <__addsf3+0x39c>
800a714c:	d8078ae3          	beqz	a5,800a6ee0 <__addsf3+0x74>
800a7150:	40f50733          	sub	a4,a0,a5
800a7154:	00571693          	slli	a3,a4,0x5
800a7158:	40a787b3          	sub	a5,a5,a0
800a715c:	1206c063          	bltz	a3,800a727c <__addsf3+0x410>
800a7160:	00070793          	mv	a5,a4
800a7164:	e80716e3          	bnez	a4,800a6ff0 <__addsf3+0x184>
800a7168:	00000793          	li	a5,0
800a716c:	fd9ff06f          	j	800a7144 <__addsf3+0x2d8>
800a7170:	ea0510e3          	bnez	a0,800a7010 <__addsf3+0x1a4>
800a7174:	00058413          	mv	s0,a1
800a7178:	de079ce3          	bnez	a5,800a6f70 <__addsf3+0x104>
800a717c:	00000413          	li	s0,0
800a7180:	020007b7          	lui	a5,0x2000
800a7184:	0ff00913          	li	s2,255
800a7188:	0800006f          	j	800a7208 <__addsf3+0x39c>
800a718c:	40f504b3          	sub	s1,a0,a5
800a7190:	00549713          	slli	a4,s1,0x5
800a7194:	04075463          	bgez	a4,800a71dc <__addsf3+0x370>
800a7198:	40a784b3          	sub	s1,a5,a0
800a719c:	00058413          	mv	s0,a1
800a71a0:	00048513          	mv	a0,s1
800a71a4:	018010ef          	jal	800a81bc <__clzsi2>
800a71a8:	ffb50513          	addi	a0,a0,-5
800a71ac:	00a494b3          	sll	s1,s1,a0
800a71b0:	03254e63          	blt	a0,s2,800a71ec <__addsf3+0x380>
800a71b4:	41250533          	sub	a0,a0,s2
800a71b8:	00150513          	addi	a0,a0,1
800a71bc:	02000713          	li	a4,32
800a71c0:	40a70733          	sub	a4,a4,a0
800a71c4:	00a4d7b3          	srl	a5,s1,a0
800a71c8:	00e494b3          	sll	s1,s1,a4
800a71cc:	009034b3          	snez	s1,s1
800a71d0:	0097e7b3          	or	a5,a5,s1
800a71d4:	00000913          	li	s2,0
800a71d8:	e19ff06f          	j	800a6ff0 <__addsf3+0x184>
800a71dc:	fc0492e3          	bnez	s1,800a71a0 <__addsf3+0x334>
800a71e0:	00000793          	li	a5,0
800a71e4:	00000913          	li	s2,0
800a71e8:	f5dff06f          	j	800a7144 <__addsf3+0x2d8>
800a71ec:	fc0007b7          	lui	a5,0xfc000
800a71f0:	fff78793          	addi	a5,a5,-1 # fbffffff <__stack_top+0x7b7fe7ff>
800a71f4:	40a90933          	sub	s2,s2,a0
800a71f8:	00f4f7b3          	and	a5,s1,a5
800a71fc:	df5ff06f          	j	800a6ff0 <__addsf3+0x184>
800a7200:	0ff00913          	li	s2,255
800a7204:	00000793          	li	a5,0
800a7208:	00579713          	slli	a4,a5,0x5
800a720c:	00075e63          	bgez	a4,800a7228 <__addsf3+0x3bc>
800a7210:	00190913          	addi	s2,s2,1
800a7214:	0ff00713          	li	a4,255
800a7218:	06e90663          	beq	s2,a4,800a7284 <__addsf3+0x418>
800a721c:	fc000737          	lui	a4,0xfc000
800a7220:	fff70713          	addi	a4,a4,-1 # fbffffff <__stack_top+0x7b7fe7ff>
800a7224:	00e7f7b3          	and	a5,a5,a4
800a7228:	0ff00713          	li	a4,255
800a722c:	0037d793          	srli	a5,a5,0x3
800a7230:	00e91863          	bne	s2,a4,800a7240 <__addsf3+0x3d4>
800a7234:	00078663          	beqz	a5,800a7240 <__addsf3+0x3d4>
800a7238:	004007b7          	lui	a5,0x400
800a723c:	00000413          	li	s0,0
800a7240:	00c12083          	lw	ra,12(sp)
800a7244:	01791713          	slli	a4,s2,0x17
800a7248:	01f41513          	slli	a0,s0,0x1f
800a724c:	7f8006b7          	lui	a3,0x7f800
800a7250:	00812403          	lw	s0,8(sp)
800a7254:	00979793          	slli	a5,a5,0x9
800a7258:	00d77733          	and	a4,a4,a3
800a725c:	0097d793          	srli	a5,a5,0x9
800a7260:	00f767b3          	or	a5,a4,a5
800a7264:	00412483          	lw	s1,4(sp)
800a7268:	00012903          	lw	s2,0(sp)
800a726c:	00a7e533          	or	a0,a5,a0
800a7270:	01010113          	addi	sp,sp,16
800a7274:	00008067          	ret
800a7278:	00070913          	mv	s2,a4
800a727c:	00058413          	mv	s0,a1
800a7280:	d71ff06f          	j	800a6ff0 <__addsf3+0x184>
800a7284:	00000793          	li	a5,0
800a7288:	fa1ff06f          	j	800a7228 <__addsf3+0x3bc>

800a728c <__divsf3>:
800a728c:	fe010113          	addi	sp,sp,-32
800a7290:	00912a23          	sw	s1,20(sp)
800a7294:	01755493          	srli	s1,a0,0x17
800a7298:	01212823          	sw	s2,16(sp)
800a729c:	01312623          	sw	s3,12(sp)
800a72a0:	01412423          	sw	s4,8(sp)
800a72a4:	00951993          	slli	s3,a0,0x9
800a72a8:	00112e23          	sw	ra,28(sp)
800a72ac:	00812c23          	sw	s0,24(sp)
800a72b0:	01512223          	sw	s5,4(sp)
800a72b4:	0ff4f493          	zext.b	s1,s1
800a72b8:	00058a13          	mv	s4,a1
800a72bc:	0099d993          	srli	s3,s3,0x9
800a72c0:	01f55913          	srli	s2,a0,0x1f
800a72c4:	08048463          	beqz	s1,800a734c <__divsf3+0xc0>
800a72c8:	0ff00793          	li	a5,255
800a72cc:	0af48063          	beq	s1,a5,800a736c <__divsf3+0xe0>
800a72d0:	00399993          	slli	s3,s3,0x3
800a72d4:	040007b7          	lui	a5,0x4000
800a72d8:	00f9e9b3          	or	s3,s3,a5
800a72dc:	f8148493          	addi	s1,s1,-127
800a72e0:	00000a93          	li	s5,0
800a72e4:	017a5793          	srli	a5,s4,0x17
800a72e8:	009a1413          	slli	s0,s4,0x9
800a72ec:	0ff7f793          	zext.b	a5,a5
800a72f0:	00945413          	srli	s0,s0,0x9
800a72f4:	01fa5a13          	srli	s4,s4,0x1f
800a72f8:	08078a63          	beqz	a5,800a738c <__divsf3+0x100>
800a72fc:	0ff00713          	li	a4,255
800a7300:	0ae78663          	beq	a5,a4,800a73ac <__divsf3+0x120>
800a7304:	00341413          	slli	s0,s0,0x3
800a7308:	04000737          	lui	a4,0x4000
800a730c:	00e46433          	or	s0,s0,a4
800a7310:	f8178793          	addi	a5,a5,-127 # 3ffff81 <__heap_size+0x3dfff81>
800a7314:	00000713          	li	a4,0
800a7318:	40f484b3          	sub	s1,s1,a5
800a731c:	002a9793          	slli	a5,s5,0x2
800a7320:	00e7e7b3          	or	a5,a5,a4
800a7324:	fff78793          	addi	a5,a5,-1
800a7328:	00e00613          	li	a2,14
800a732c:	014946b3          	xor	a3,s2,s4
800a7330:	08f66e63          	bltu	a2,a5,800a73cc <__divsf3+0x140>
800a7334:	800f1637          	lui	a2,0x800f1
800a7338:	00279793          	slli	a5,a5,0x2
800a733c:	55c60613          	addi	a2,a2,1372 # 800f155c <__clzsi2+0x493a0>
800a7340:	00c787b3          	add	a5,a5,a2
800a7344:	0007a783          	lw	a5,0(a5)
800a7348:	00078067          	jr	a5
800a734c:	02098a63          	beqz	s3,800a7380 <__divsf3+0xf4>
800a7350:	00098513          	mv	a0,s3
800a7354:	669000ef          	jal	800a81bc <__clzsi2>
800a7358:	ffb50793          	addi	a5,a0,-5
800a735c:	f8a00493          	li	s1,-118
800a7360:	00f999b3          	sll	s3,s3,a5
800a7364:	40a484b3          	sub	s1,s1,a0
800a7368:	f79ff06f          	j	800a72e0 <__divsf3+0x54>
800a736c:	0ff00493          	li	s1,255
800a7370:	00200a93          	li	s5,2
800a7374:	f60988e3          	beqz	s3,800a72e4 <__divsf3+0x58>
800a7378:	00300a93          	li	s5,3
800a737c:	f69ff06f          	j	800a72e4 <__divsf3+0x58>
800a7380:	00000493          	li	s1,0
800a7384:	00100a93          	li	s5,1
800a7388:	f5dff06f          	j	800a72e4 <__divsf3+0x58>
800a738c:	02040a63          	beqz	s0,800a73c0 <__divsf3+0x134>
800a7390:	00040513          	mv	a0,s0
800a7394:	629000ef          	jal	800a81bc <__clzsi2>
800a7398:	ffb50793          	addi	a5,a0,-5
800a739c:	00f41433          	sll	s0,s0,a5
800a73a0:	f8a00793          	li	a5,-118
800a73a4:	40a787b3          	sub	a5,a5,a0
800a73a8:	f6dff06f          	j	800a7314 <__divsf3+0x88>
800a73ac:	0ff00793          	li	a5,255
800a73b0:	00200713          	li	a4,2
800a73b4:	f60402e3          	beqz	s0,800a7318 <__divsf3+0x8c>
800a73b8:	00300713          	li	a4,3
800a73bc:	f5dff06f          	j	800a7318 <__divsf3+0x8c>
800a73c0:	00000793          	li	a5,0
800a73c4:	00100713          	li	a4,1
800a73c8:	f51ff06f          	j	800a7318 <__divsf3+0x8c>
800a73cc:	00541613          	slli	a2,s0,0x5
800a73d0:	1289f263          	bgeu	s3,s0,800a74f4 <__divsf3+0x268>
800a73d4:	fff48493          	addi	s1,s1,-1
800a73d8:	00000793          	li	a5,0
800a73dc:	01065593          	srli	a1,a2,0x10
800a73e0:	02b9d833          	divu	a6,s3,a1
800a73e4:	00010737          	lui	a4,0x10
800a73e8:	fe070713          	addi	a4,a4,-32 # ffe0 <__stack_size+0xf7e0>
800a73ec:	00e67733          	and	a4,a2,a4
800a73f0:	0107d793          	srli	a5,a5,0x10
800a73f4:	02b9f9b3          	remu	s3,s3,a1
800a73f8:	00080413          	mv	s0,a6
800a73fc:	03070533          	mul	a0,a4,a6
800a7400:	01099993          	slli	s3,s3,0x10
800a7404:	0137e7b3          	or	a5,a5,s3
800a7408:	00a7fe63          	bgeu	a5,a0,800a7424 <__divsf3+0x198>
800a740c:	00f607b3          	add	a5,a2,a5
800a7410:	fff80413          	addi	s0,a6,-1
800a7414:	00c7e863          	bltu	a5,a2,800a7424 <__divsf3+0x198>
800a7418:	00a7f663          	bgeu	a5,a0,800a7424 <__divsf3+0x198>
800a741c:	ffe80413          	addi	s0,a6,-2
800a7420:	00c787b3          	add	a5,a5,a2
800a7424:	40a787b3          	sub	a5,a5,a0
800a7428:	02b7d533          	divu	a0,a5,a1
800a742c:	02b7f7b3          	remu	a5,a5,a1
800a7430:	00050593          	mv	a1,a0
800a7434:	02a70733          	mul	a4,a4,a0
800a7438:	01079793          	slli	a5,a5,0x10
800a743c:	02e7f263          	bgeu	a5,a4,800a7460 <__divsf3+0x1d4>
800a7440:	00c78833          	add	a6,a5,a2
800a7444:	00f838b3          	sltu	a7,a6,a5
800a7448:	fff50593          	addi	a1,a0,-1
800a744c:	00080793          	mv	a5,a6
800a7450:	00089863          	bnez	a7,800a7460 <__divsf3+0x1d4>
800a7454:	00e87663          	bgeu	a6,a4,800a7460 <__divsf3+0x1d4>
800a7458:	ffe50593          	addi	a1,a0,-2
800a745c:	00c807b3          	add	a5,a6,a2
800a7460:	01041413          	slli	s0,s0,0x10
800a7464:	40e787b3          	sub	a5,a5,a4
800a7468:	00b46433          	or	s0,s0,a1
800a746c:	00f037b3          	snez	a5,a5
800a7470:	00f46433          	or	s0,s0,a5
800a7474:	07f48713          	addi	a4,s1,127
800a7478:	0ce05863          	blez	a4,800a7548 <__divsf3+0x2bc>
800a747c:	00747793          	andi	a5,s0,7
800a7480:	00078a63          	beqz	a5,800a7494 <__divsf3+0x208>
800a7484:	00f47793          	andi	a5,s0,15
800a7488:	00400613          	li	a2,4
800a748c:	00c78463          	beq	a5,a2,800a7494 <__divsf3+0x208>
800a7490:	00440413          	addi	s0,s0,4
800a7494:	00441793          	slli	a5,s0,0x4
800a7498:	0007da63          	bgez	a5,800a74ac <__divsf3+0x220>
800a749c:	f80007b7          	lui	a5,0xf8000
800a74a0:	fff78793          	addi	a5,a5,-1 # f7ffffff <__stack_top+0x777fe7ff>
800a74a4:	00f47433          	and	s0,s0,a5
800a74a8:	08048713          	addi	a4,s1,128
800a74ac:	0fe00793          	li	a5,254
800a74b0:	06e7ca63          	blt	a5,a4,800a7524 <__divsf3+0x298>
800a74b4:	00345793          	srli	a5,s0,0x3
800a74b8:	01c12083          	lw	ra,28(sp)
800a74bc:	01812403          	lw	s0,24(sp)
800a74c0:	00979793          	slli	a5,a5,0x9
800a74c4:	01771713          	slli	a4,a4,0x17
800a74c8:	0097d793          	srli	a5,a5,0x9
800a74cc:	00f76733          	or	a4,a4,a5
800a74d0:	01f69513          	slli	a0,a3,0x1f
800a74d4:	01412483          	lw	s1,20(sp)
800a74d8:	01012903          	lw	s2,16(sp)
800a74dc:	00c12983          	lw	s3,12(sp)
800a74e0:	00812a03          	lw	s4,8(sp)
800a74e4:	00412a83          	lw	s5,4(sp)
800a74e8:	00a76533          	or	a0,a4,a0
800a74ec:	02010113          	addi	sp,sp,32
800a74f0:	00008067          	ret
800a74f4:	01f99793          	slli	a5,s3,0x1f
800a74f8:	0019d993          	srli	s3,s3,0x1
800a74fc:	ee1ff06f          	j	800a73dc <__divsf3+0x150>
800a7500:	00090693          	mv	a3,s2
800a7504:	00098413          	mv	s0,s3
800a7508:	000a8713          	mv	a4,s5
800a750c:	00300793          	li	a5,3
800a7510:	08f70663          	beq	a4,a5,800a759c <__divsf3+0x310>
800a7514:	00100793          	li	a5,1
800a7518:	08f70a63          	beq	a4,a5,800a75ac <__divsf3+0x320>
800a751c:	00200793          	li	a5,2
800a7520:	f4f71ae3          	bne	a4,a5,800a7474 <__divsf3+0x1e8>
800a7524:	00000793          	li	a5,0
800a7528:	0ff00713          	li	a4,255
800a752c:	f8dff06f          	j	800a74b8 <__divsf3+0x22c>
800a7530:	000a0693          	mv	a3,s4
800a7534:	fd9ff06f          	j	800a750c <__divsf3+0x280>
800a7538:	00400437          	lui	s0,0x400
800a753c:	00000693          	li	a3,0
800a7540:	00300713          	li	a4,3
800a7544:	fc9ff06f          	j	800a750c <__divsf3+0x280>
800a7548:	00100793          	li	a5,1
800a754c:	40e787b3          	sub	a5,a5,a4
800a7550:	01b00713          	li	a4,27
800a7554:	04f74c63          	blt	a4,a5,800a75ac <__divsf3+0x320>
800a7558:	09e48493          	addi	s1,s1,158
800a755c:	00f457b3          	srl	a5,s0,a5
800a7560:	00941433          	sll	s0,s0,s1
800a7564:	00803433          	snez	s0,s0
800a7568:	0087e7b3          	or	a5,a5,s0
800a756c:	0077f713          	andi	a4,a5,7
800a7570:	00070a63          	beqz	a4,800a7584 <__divsf3+0x2f8>
800a7574:	00f7f713          	andi	a4,a5,15
800a7578:	00400613          	li	a2,4
800a757c:	00c70463          	beq	a4,a2,800a7584 <__divsf3+0x2f8>
800a7580:	00478793          	addi	a5,a5,4
800a7584:	00579713          	slli	a4,a5,0x5
800a7588:	0037d793          	srli	a5,a5,0x3
800a758c:	02075263          	bgez	a4,800a75b0 <__divsf3+0x324>
800a7590:	00000793          	li	a5,0
800a7594:	00100713          	li	a4,1
800a7598:	f21ff06f          	j	800a74b8 <__divsf3+0x22c>
800a759c:	004007b7          	lui	a5,0x400
800a75a0:	0ff00713          	li	a4,255
800a75a4:	00000693          	li	a3,0
800a75a8:	f11ff06f          	j	800a74b8 <__divsf3+0x22c>
800a75ac:	00000793          	li	a5,0
800a75b0:	00000713          	li	a4,0
800a75b4:	f05ff06f          	j	800a74b8 <__divsf3+0x22c>

800a75b8 <__gesf2>:
800a75b8:	008007b7          	lui	a5,0x800
800a75bc:	fff78793          	addi	a5,a5,-1 # 7fffff <__heap_size+0x5fffff>
800a75c0:	01755693          	srli	a3,a0,0x17
800a75c4:	00a7f633          	and	a2,a5,a0
800a75c8:	01f55713          	srli	a4,a0,0x1f
800a75cc:	0ff6f693          	zext.b	a3,a3
800a75d0:	0175d513          	srli	a0,a1,0x17
800a75d4:	0ff00813          	li	a6,255
800a75d8:	00b7f7b3          	and	a5,a5,a1
800a75dc:	0ff57513          	zext.b	a0,a0
800a75e0:	01f5d593          	srli	a1,a1,0x1f
800a75e4:	01069463          	bne	a3,a6,800a75ec <__gesf2+0x34>
800a75e8:	04061263          	bnez	a2,800a762c <__gesf2+0x74>
800a75ec:	0ff00813          	li	a6,255
800a75f0:	01051463          	bne	a0,a6,800a75f8 <__gesf2+0x40>
800a75f4:	02079c63          	bnez	a5,800a762c <__gesf2+0x74>
800a75f8:	04069a63          	bnez	a3,800a764c <__gesf2+0x94>
800a75fc:	02051c63          	bnez	a0,800a7634 <__gesf2+0x7c>
800a7600:	04061863          	bnez	a2,800a7650 <__gesf2+0x98>
800a7604:	04078263          	beqz	a5,800a7648 <__gesf2+0x90>
800a7608:	00100513          	li	a0,1
800a760c:	02059e63          	bnez	a1,800a7648 <__gesf2+0x90>
800a7610:	fff00513          	li	a0,-1
800a7614:	00008067          	ret
800a7618:	fea6c8e3          	blt	a3,a0,800a7608 <__gesf2+0x50>
800a761c:	02c7e263          	bltu	a5,a2,800a7640 <__gesf2+0x88>
800a7620:	00000513          	li	a0,0
800a7624:	02f67263          	bgeu	a2,a5,800a7648 <__gesf2+0x90>
800a7628:	fe1ff06f          	j	800a7608 <__gesf2+0x50>
800a762c:	ffe00513          	li	a0,-2
800a7630:	00008067          	ret
800a7634:	fc060ae3          	beqz	a2,800a7608 <__gesf2+0x50>
800a7638:	00e59e63          	bne	a1,a4,800a7654 <__gesf2+0x9c>
800a763c:	fcd55ee3          	bge	a0,a3,800a7618 <__gesf2+0x60>
800a7640:	fff00513          	li	a0,-1
800a7644:	00058c63          	beqz	a1,800a765c <__gesf2+0xa4>
800a7648:	00008067          	ret
800a764c:	fe0516e3          	bnez	a0,800a7638 <__gesf2+0x80>
800a7650:	fe0794e3          	bnez	a5,800a7638 <__gesf2+0x80>
800a7654:	fff00513          	li	a0,-1
800a7658:	fe0718e3          	bnez	a4,800a7648 <__gesf2+0x90>
800a765c:	00100513          	li	a0,1
800a7660:	00008067          	ret

800a7664 <__lesf2>:
800a7664:	008007b7          	lui	a5,0x800
800a7668:	fff78793          	addi	a5,a5,-1 # 7fffff <__heap_size+0x5fffff>
800a766c:	01755693          	srli	a3,a0,0x17
800a7670:	00a7f633          	and	a2,a5,a0
800a7674:	01f55713          	srli	a4,a0,0x1f
800a7678:	0ff6f693          	zext.b	a3,a3
800a767c:	0175d513          	srli	a0,a1,0x17
800a7680:	0ff00813          	li	a6,255
800a7684:	00b7f7b3          	and	a5,a5,a1
800a7688:	0ff57513          	zext.b	a0,a0
800a768c:	01f5d593          	srli	a1,a1,0x1f
800a7690:	01069463          	bne	a3,a6,800a7698 <__lesf2+0x34>
800a7694:	04061263          	bnez	a2,800a76d8 <__lesf2+0x74>
800a7698:	0ff00813          	li	a6,255
800a769c:	01051463          	bne	a0,a6,800a76a4 <__lesf2+0x40>
800a76a0:	02079c63          	bnez	a5,800a76d8 <__lesf2+0x74>
800a76a4:	04069a63          	bnez	a3,800a76f8 <__lesf2+0x94>
800a76a8:	02051c63          	bnez	a0,800a76e0 <__lesf2+0x7c>
800a76ac:	04061863          	bnez	a2,800a76fc <__lesf2+0x98>
800a76b0:	04078263          	beqz	a5,800a76f4 <__lesf2+0x90>
800a76b4:	00100513          	li	a0,1
800a76b8:	02059e63          	bnez	a1,800a76f4 <__lesf2+0x90>
800a76bc:	fff00513          	li	a0,-1
800a76c0:	00008067          	ret
800a76c4:	fea6c8e3          	blt	a3,a0,800a76b4 <__lesf2+0x50>
800a76c8:	02c7e263          	bltu	a5,a2,800a76ec <__lesf2+0x88>
800a76cc:	00000513          	li	a0,0
800a76d0:	02f67263          	bgeu	a2,a5,800a76f4 <__lesf2+0x90>
800a76d4:	fe1ff06f          	j	800a76b4 <__lesf2+0x50>
800a76d8:	00200513          	li	a0,2
800a76dc:	00008067          	ret
800a76e0:	fc060ae3          	beqz	a2,800a76b4 <__lesf2+0x50>
800a76e4:	00e59e63          	bne	a1,a4,800a7700 <__lesf2+0x9c>
800a76e8:	fcd55ee3          	bge	a0,a3,800a76c4 <__lesf2+0x60>
800a76ec:	fff00513          	li	a0,-1
800a76f0:	00058c63          	beqz	a1,800a7708 <__lesf2+0xa4>
800a76f4:	00008067          	ret
800a76f8:	fe0516e3          	bnez	a0,800a76e4 <__lesf2+0x80>
800a76fc:	fe0794e3          	bnez	a5,800a76e4 <__lesf2+0x80>
800a7700:	fff00513          	li	a0,-1
800a7704:	fe0718e3          	bnez	a4,800a76f4 <__lesf2+0x90>
800a7708:	00100513          	li	a0,1
800a770c:	00008067          	ret

800a7710 <__mulsf3>:
800a7710:	fe010113          	addi	sp,sp,-32
800a7714:	01212823          	sw	s2,16(sp)
800a7718:	01755913          	srli	s2,a0,0x17
800a771c:	00912a23          	sw	s1,20(sp)
800a7720:	01312623          	sw	s3,12(sp)
800a7724:	01512223          	sw	s5,4(sp)
800a7728:	00951493          	slli	s1,a0,0x9
800a772c:	00112e23          	sw	ra,28(sp)
800a7730:	00812c23          	sw	s0,24(sp)
800a7734:	01412423          	sw	s4,8(sp)
800a7738:	0ff97913          	zext.b	s2,s2
800a773c:	00058a93          	mv	s5,a1
800a7740:	0094d493          	srli	s1,s1,0x9
800a7744:	01f55993          	srli	s3,a0,0x1f
800a7748:	10090863          	beqz	s2,800a7858 <__mulsf3+0x148>
800a774c:	0ff00793          	li	a5,255
800a7750:	12f90463          	beq	s2,a5,800a7878 <__mulsf3+0x168>
800a7754:	00349493          	slli	s1,s1,0x3
800a7758:	040007b7          	lui	a5,0x4000
800a775c:	00f4e4b3          	or	s1,s1,a5
800a7760:	f8190913          	addi	s2,s2,-127
800a7764:	00000a13          	li	s4,0
800a7768:	017ad793          	srli	a5,s5,0x17
800a776c:	009a9413          	slli	s0,s5,0x9
800a7770:	0ff7f793          	zext.b	a5,a5
800a7774:	00945413          	srli	s0,s0,0x9
800a7778:	01fada93          	srli	s5,s5,0x1f
800a777c:	10078e63          	beqz	a5,800a7898 <__mulsf3+0x188>
800a7780:	0ff00713          	li	a4,255
800a7784:	12e78a63          	beq	a5,a4,800a78b8 <__mulsf3+0x1a8>
800a7788:	00341413          	slli	s0,s0,0x3
800a778c:	04000737          	lui	a4,0x4000
800a7790:	00e46433          	or	s0,s0,a4
800a7794:	f8178793          	addi	a5,a5,-127 # 3ffff81 <__heap_size+0x3dfff81>
800a7798:	00000713          	li	a4,0
800a779c:	00f90933          	add	s2,s2,a5
800a77a0:	002a1793          	slli	a5,s4,0x2
800a77a4:	00e7e7b3          	or	a5,a5,a4
800a77a8:	00a00613          	li	a2,10
800a77ac:	00190693          	addi	a3,s2,1
800a77b0:	1ef64263          	blt	a2,a5,800a7994 <__mulsf3+0x284>
800a77b4:	00200613          	li	a2,2
800a77b8:	0159c9b3          	xor	s3,s3,s5
800a77bc:	10f64e63          	blt	a2,a5,800a78d8 <__mulsf3+0x1c8>
800a77c0:	fff78793          	addi	a5,a5,-1
800a77c4:	00100613          	li	a2,1
800a77c8:	12f67a63          	bgeu	a2,a5,800a78fc <__mulsf3+0x1ec>
800a77cc:	00010837          	lui	a6,0x10
800a77d0:	fff80513          	addi	a0,a6,-1 # ffff <__stack_size+0xf7ff>
800a77d4:	0104d613          	srli	a2,s1,0x10
800a77d8:	01045793          	srli	a5,s0,0x10
800a77dc:	00a4f4b3          	and	s1,s1,a0
800a77e0:	00a47433          	and	s0,s0,a0
800a77e4:	029405b3          	mul	a1,s0,s1
800a77e8:	02860433          	mul	s0,a2,s0
800a77ec:	02f60633          	mul	a2,a2,a5
800a77f0:	029787b3          	mul	a5,a5,s1
800a77f4:	00878733          	add	a4,a5,s0
800a77f8:	0105d793          	srli	a5,a1,0x10
800a77fc:	00e787b3          	add	a5,a5,a4
800a7800:	0087f463          	bgeu	a5,s0,800a7808 <__mulsf3+0xf8>
800a7804:	01060633          	add	a2,a2,a6
800a7808:	00a7f733          	and	a4,a5,a0
800a780c:	01071713          	slli	a4,a4,0x10
800a7810:	00a5f5b3          	and	a1,a1,a0
800a7814:	00b70733          	add	a4,a4,a1
800a7818:	0107d793          	srli	a5,a5,0x10
800a781c:	00671413          	slli	s0,a4,0x6
800a7820:	00c787b3          	add	a5,a5,a2
800a7824:	01a75713          	srli	a4,a4,0x1a
800a7828:	00679793          	slli	a5,a5,0x6
800a782c:	00803433          	snez	s0,s0
800a7830:	00e46433          	or	s0,s0,a4
800a7834:	00479713          	slli	a4,a5,0x4
800a7838:	0087e433          	or	s0,a5,s0
800a783c:	00075a63          	bgez	a4,800a7850 <__mulsf3+0x140>
800a7840:	00145793          	srli	a5,s0,0x1
800a7844:	00147413          	andi	s0,s0,1
800a7848:	0087e433          	or	s0,a5,s0
800a784c:	00068913          	mv	s2,a3
800a7850:	00090693          	mv	a3,s2
800a7854:	0c00006f          	j	800a7914 <__mulsf3+0x204>
800a7858:	02048a63          	beqz	s1,800a788c <__mulsf3+0x17c>
800a785c:	00048513          	mv	a0,s1
800a7860:	15d000ef          	jal	800a81bc <__clzsi2>
800a7864:	ffb50793          	addi	a5,a0,-5
800a7868:	f8a00913          	li	s2,-118
800a786c:	00f494b3          	sll	s1,s1,a5
800a7870:	40a90933          	sub	s2,s2,a0
800a7874:	ef1ff06f          	j	800a7764 <__mulsf3+0x54>
800a7878:	0ff00913          	li	s2,255
800a787c:	00200a13          	li	s4,2
800a7880:	ee0484e3          	beqz	s1,800a7768 <__mulsf3+0x58>
800a7884:	00300a13          	li	s4,3
800a7888:	ee1ff06f          	j	800a7768 <__mulsf3+0x58>
800a788c:	00000913          	li	s2,0
800a7890:	00100a13          	li	s4,1
800a7894:	ed5ff06f          	j	800a7768 <__mulsf3+0x58>
800a7898:	02040a63          	beqz	s0,800a78cc <__mulsf3+0x1bc>
800a789c:	00040513          	mv	a0,s0
800a78a0:	11d000ef          	jal	800a81bc <__clzsi2>
800a78a4:	ffb50793          	addi	a5,a0,-5
800a78a8:	00f41433          	sll	s0,s0,a5
800a78ac:	f8a00793          	li	a5,-118
800a78b0:	40a787b3          	sub	a5,a5,a0
800a78b4:	ee5ff06f          	j	800a7798 <__mulsf3+0x88>
800a78b8:	0ff00793          	li	a5,255
800a78bc:	00200713          	li	a4,2
800a78c0:	ec040ee3          	beqz	s0,800a779c <__mulsf3+0x8c>
800a78c4:	00300713          	li	a4,3
800a78c8:	ed5ff06f          	j	800a779c <__mulsf3+0x8c>
800a78cc:	00000793          	li	a5,0
800a78d0:	00100713          	li	a4,1
800a78d4:	ec9ff06f          	j	800a779c <__mulsf3+0x8c>
800a78d8:	00100613          	li	a2,1
800a78dc:	00f617b3          	sll	a5,a2,a5
800a78e0:	5307f613          	andi	a2,a5,1328
800a78e4:	0c061063          	bnez	a2,800a79a4 <__mulsf3+0x294>
800a78e8:	2407f613          	andi	a2,a5,576
800a78ec:	12061263          	bnez	a2,800a7a10 <__mulsf3+0x300>
800a78f0:	0887f793          	andi	a5,a5,136
800a78f4:	ec078ce3          	beqz	a5,800a77cc <__mulsf3+0xbc>
800a78f8:	000a8993          	mv	s3,s5
800a78fc:	00200793          	li	a5,2
800a7900:	10f70263          	beq	a4,a5,800a7a04 <__mulsf3+0x2f4>
800a7904:	00300793          	li	a5,3
800a7908:	10f70463          	beq	a4,a5,800a7a10 <__mulsf3+0x300>
800a790c:	00100793          	li	a5,1
800a7910:	10f70863          	beq	a4,a5,800a7a20 <__mulsf3+0x310>
800a7914:	07f68713          	addi	a4,a3,127 # 7f80007f <__heap_size+0x7f60007f>
800a7918:	08e05c63          	blez	a4,800a79b0 <__mulsf3+0x2a0>
800a791c:	00747793          	andi	a5,s0,7
800a7920:	00078a63          	beqz	a5,800a7934 <__mulsf3+0x224>
800a7924:	00f47793          	andi	a5,s0,15
800a7928:	00400613          	li	a2,4
800a792c:	00c78463          	beq	a5,a2,800a7934 <__mulsf3+0x224>
800a7930:	00440413          	addi	s0,s0,4 # 400004 <__heap_size+0x200004>
800a7934:	00441793          	slli	a5,s0,0x4
800a7938:	0007da63          	bgez	a5,800a794c <__mulsf3+0x23c>
800a793c:	f80007b7          	lui	a5,0xf8000
800a7940:	fff78793          	addi	a5,a5,-1 # f7ffffff <__stack_top+0x777fe7ff>
800a7944:	00f47433          	and	s0,s0,a5
800a7948:	08068713          	addi	a4,a3,128
800a794c:	0fe00793          	li	a5,254
800a7950:	0ae7ca63          	blt	a5,a4,800a7a04 <__mulsf3+0x2f4>
800a7954:	00345793          	srli	a5,s0,0x3
800a7958:	01c12083          	lw	ra,28(sp)
800a795c:	01812403          	lw	s0,24(sp)
800a7960:	00979793          	slli	a5,a5,0x9
800a7964:	01771513          	slli	a0,a4,0x17
800a7968:	0097d793          	srli	a5,a5,0x9
800a796c:	01f99993          	slli	s3,s3,0x1f
800a7970:	00f56533          	or	a0,a0,a5
800a7974:	01412483          	lw	s1,20(sp)
800a7978:	01012903          	lw	s2,16(sp)
800a797c:	00812a03          	lw	s4,8(sp)
800a7980:	00412a83          	lw	s5,4(sp)
800a7984:	01356533          	or	a0,a0,s3
800a7988:	00c12983          	lw	s3,12(sp)
800a798c:	02010113          	addi	sp,sp,32
800a7990:	00008067          	ret
800a7994:	00f00613          	li	a2,15
800a7998:	06c78c63          	beq	a5,a2,800a7a10 <__mulsf3+0x300>
800a799c:	00b00613          	li	a2,11
800a79a0:	f4c78ce3          	beq	a5,a2,800a78f8 <__mulsf3+0x1e8>
800a79a4:	00048413          	mv	s0,s1
800a79a8:	000a0713          	mv	a4,s4
800a79ac:	f51ff06f          	j	800a78fc <__mulsf3+0x1ec>
800a79b0:	00100793          	li	a5,1
800a79b4:	40e787b3          	sub	a5,a5,a4
800a79b8:	01b00713          	li	a4,27
800a79bc:	06f74263          	blt	a4,a5,800a7a20 <__mulsf3+0x310>
800a79c0:	09e68693          	addi	a3,a3,158
800a79c4:	00d416b3          	sll	a3,s0,a3
800a79c8:	00f457b3          	srl	a5,s0,a5
800a79cc:	00d036b3          	snez	a3,a3
800a79d0:	00d7e7b3          	or	a5,a5,a3
800a79d4:	0077f713          	andi	a4,a5,7
800a79d8:	00070a63          	beqz	a4,800a79ec <__mulsf3+0x2dc>
800a79dc:	00f7f713          	andi	a4,a5,15
800a79e0:	00400693          	li	a3,4
800a79e4:	00d70463          	beq	a4,a3,800a79ec <__mulsf3+0x2dc>
800a79e8:	00478793          	addi	a5,a5,4
800a79ec:	00579713          	slli	a4,a5,0x5
800a79f0:	0037d793          	srli	a5,a5,0x3
800a79f4:	02075863          	bgez	a4,800a7a24 <__mulsf3+0x314>
800a79f8:	00000793          	li	a5,0
800a79fc:	00100713          	li	a4,1
800a7a00:	f59ff06f          	j	800a7958 <__mulsf3+0x248>
800a7a04:	00000793          	li	a5,0
800a7a08:	0ff00713          	li	a4,255
800a7a0c:	f4dff06f          	j	800a7958 <__mulsf3+0x248>
800a7a10:	004007b7          	lui	a5,0x400
800a7a14:	0ff00713          	li	a4,255
800a7a18:	00000993          	li	s3,0
800a7a1c:	f3dff06f          	j	800a7958 <__mulsf3+0x248>
800a7a20:	00000793          	li	a5,0
800a7a24:	00000713          	li	a4,0
800a7a28:	f31ff06f          	j	800a7958 <__mulsf3+0x248>

800a7a2c <__subsf3>:
800a7a2c:	008006b7          	lui	a3,0x800
800a7a30:	fff68693          	addi	a3,a3,-1 # 7fffff <__heap_size+0x5fffff>
800a7a34:	ff010113          	addi	sp,sp,-16
800a7a38:	00a6f633          	and	a2,a3,a0
800a7a3c:	01755713          	srli	a4,a0,0x17
800a7a40:	00812423          	sw	s0,8(sp)
800a7a44:	01f55413          	srli	s0,a0,0x1f
800a7a48:	00361513          	slli	a0,a2,0x3
800a7a4c:	0175d613          	srli	a2,a1,0x17
800a7a50:	00b6f6b3          	and	a3,a3,a1
800a7a54:	01212023          	sw	s2,0(sp)
800a7a58:	00112623          	sw	ra,12(sp)
800a7a5c:	0ff77913          	zext.b	s2,a4
800a7a60:	00912223          	sw	s1,4(sp)
800a7a64:	0ff67613          	zext.b	a2,a2
800a7a68:	0ff00713          	li	a4,255
800a7a6c:	01f5d593          	srli	a1,a1,0x1f
800a7a70:	00369793          	slli	a5,a3,0x3
800a7a74:	00e61463          	bne	a2,a4,800a7a7c <__subsf3+0x50>
800a7a78:	00079463          	bnez	a5,800a7a80 <__subsf3+0x54>
800a7a7c:	0015c593          	xori	a1,a1,1
800a7a80:	40c906b3          	sub	a3,s2,a2
800a7a84:	18859063          	bne	a1,s0,800a7c04 <__subsf3+0x1d8>
800a7a88:	08d05c63          	blez	a3,800a7b20 <__subsf3+0xf4>
800a7a8c:	02061663          	bnez	a2,800a7ab8 <__subsf3+0x8c>
800a7a90:	02078063          	beqz	a5,800a7ab0 <__subsf3+0x84>
800a7a94:	fff90693          	addi	a3,s2,-1
800a7a98:	00069863          	bnez	a3,800a7aa8 <__subsf3+0x7c>
800a7a9c:	00a787b3          	add	a5,a5,a0
800a7aa0:	00100913          	li	s2,1
800a7aa4:	04c0006f          	j	800a7af0 <__subsf3+0xc4>
800a7aa8:	0ff00713          	li	a4,255
800a7aac:	00e91e63          	bne	s2,a4,800a7ac8 <__subsf3+0x9c>
800a7ab0:	00050793          	mv	a5,a0
800a7ab4:	10c0006f          	j	800a7bc0 <__subsf3+0x194>
800a7ab8:	0ff00713          	li	a4,255
800a7abc:	fee90ae3          	beq	s2,a4,800a7ab0 <__subsf3+0x84>
800a7ac0:	04000737          	lui	a4,0x4000
800a7ac4:	00e7e7b3          	or	a5,a5,a4
800a7ac8:	01b00613          	li	a2,27
800a7acc:	00100713          	li	a4,1
800a7ad0:	00d64e63          	blt	a2,a3,800a7aec <__subsf3+0xc0>
800a7ad4:	02000613          	li	a2,32
800a7ad8:	00d7d733          	srl	a4,a5,a3
800a7adc:	40d606b3          	sub	a3,a2,a3
800a7ae0:	00d796b3          	sll	a3,a5,a3
800a7ae4:	00d036b3          	snez	a3,a3
800a7ae8:	00d76733          	or	a4,a4,a3
800a7aec:	00a707b3          	add	a5,a4,a0
800a7af0:	00579713          	slli	a4,a5,0x5
800a7af4:	0c075663          	bgez	a4,800a7bc0 <__subsf3+0x194>
800a7af8:	00190913          	addi	s2,s2,1
800a7afc:	0ff00713          	li	a4,255
800a7b00:	2ce90a63          	beq	s2,a4,800a7dd4 <__subsf3+0x3a8>
800a7b04:	7e000737          	lui	a4,0x7e000
800a7b08:	0017f693          	andi	a3,a5,1
800a7b0c:	fff70713          	addi	a4,a4,-1 # 7dffffff <__heap_size+0x7ddfffff>
800a7b10:	0017d793          	srli	a5,a5,0x1
800a7b14:	00e7f7b3          	and	a5,a5,a4
800a7b18:	00d7e7b3          	or	a5,a5,a3
800a7b1c:	0a40006f          	j	800a7bc0 <__subsf3+0x194>
800a7b20:	06068663          	beqz	a3,800a7b8c <__subsf3+0x160>
800a7b24:	41260733          	sub	a4,a2,s2
800a7b28:	02091063          	bnez	s2,800a7b48 <__subsf3+0x11c>
800a7b2c:	0c050863          	beqz	a0,800a7bfc <__subsf3+0x1d0>
800a7b30:	fff70693          	addi	a3,a4,-1
800a7b34:	f60684e3          	beqz	a3,800a7a9c <__subsf3+0x70>
800a7b38:	0ff00593          	li	a1,255
800a7b3c:	02b71063          	bne	a4,a1,800a7b5c <__subsf3+0x130>
800a7b40:	0ff00913          	li	s2,255
800a7b44:	07c0006f          	j	800a7bc0 <__subsf3+0x194>
800a7b48:	0ff00693          	li	a3,255
800a7b4c:	fed60ae3          	beq	a2,a3,800a7b40 <__subsf3+0x114>
800a7b50:	040006b7          	lui	a3,0x4000
800a7b54:	00d56533          	or	a0,a0,a3
800a7b58:	00070693          	mv	a3,a4
800a7b5c:	01b00593          	li	a1,27
800a7b60:	00100713          	li	a4,1
800a7b64:	00d5ce63          	blt	a1,a3,800a7b80 <__subsf3+0x154>
800a7b68:	02000713          	li	a4,32
800a7b6c:	40d70733          	sub	a4,a4,a3
800a7b70:	00e51733          	sll	a4,a0,a4
800a7b74:	00d555b3          	srl	a1,a0,a3
800a7b78:	00e03733          	snez	a4,a4
800a7b7c:	00e5e733          	or	a4,a1,a4
800a7b80:	00e787b3          	add	a5,a5,a4
800a7b84:	00060913          	mv	s2,a2
800a7b88:	f69ff06f          	j	800a7af0 <__subsf3+0xc4>
800a7b8c:	00190713          	addi	a4,s2,1
800a7b90:	0fe77693          	andi	a3,a4,254
800a7b94:	04069c63          	bnez	a3,800a7bec <__subsf3+0x1c0>
800a7b98:	04091263          	bnez	s2,800a7bdc <__subsf3+0x1b0>
800a7b9c:	02050263          	beqz	a0,800a7bc0 <__subsf3+0x194>
800a7ba0:	f00788e3          	beqz	a5,800a7ab0 <__subsf3+0x84>
800a7ba4:	00a787b3          	add	a5,a5,a0
800a7ba8:	00579713          	slli	a4,a5,0x5
800a7bac:	00075a63          	bgez	a4,800a7bc0 <__subsf3+0x194>
800a7bb0:	fc000737          	lui	a4,0xfc000
800a7bb4:	fff70713          	addi	a4,a4,-1 # fbffffff <__stack_top+0x7b7fe7ff>
800a7bb8:	00e7f7b3          	and	a5,a5,a4
800a7bbc:	00100913          	li	s2,1
800a7bc0:	0077f713          	andi	a4,a5,7
800a7bc4:	20070a63          	beqz	a4,800a7dd8 <__subsf3+0x3ac>
800a7bc8:	00f7f713          	andi	a4,a5,15
800a7bcc:	00400693          	li	a3,4
800a7bd0:	20d70463          	beq	a4,a3,800a7dd8 <__subsf3+0x3ac>
800a7bd4:	00478793          	addi	a5,a5,4 # 400004 <__heap_size+0x200004>
800a7bd8:	2000006f          	j	800a7dd8 <__subsf3+0x3ac>
800a7bdc:	f60502e3          	beqz	a0,800a7b40 <__subsf3+0x114>
800a7be0:	16079663          	bnez	a5,800a7d4c <__subsf3+0x320>
800a7be4:	00050793          	mv	a5,a0
800a7be8:	f59ff06f          	j	800a7b40 <__subsf3+0x114>
800a7bec:	0ff00693          	li	a3,255
800a7bf0:	1ed70063          	beq	a4,a3,800a7dd0 <__subsf3+0x3a4>
800a7bf4:	00f507b3          	add	a5,a0,a5
800a7bf8:	0017d793          	srli	a5,a5,0x1
800a7bfc:	00070913          	mv	s2,a4
800a7c00:	fc1ff06f          	j	800a7bc0 <__subsf3+0x194>
800a7c04:	06d05e63          	blez	a3,800a7c80 <__subsf3+0x254>
800a7c08:	06061263          	bnez	a2,800a7c6c <__subsf3+0x240>
800a7c0c:	ea0782e3          	beqz	a5,800a7ab0 <__subsf3+0x84>
800a7c10:	fff90693          	addi	a3,s2,-1
800a7c14:	00069863          	bnez	a3,800a7c24 <__subsf3+0x1f8>
800a7c18:	40f507b3          	sub	a5,a0,a5
800a7c1c:	00100913          	li	s2,1
800a7c20:	0340006f          	j	800a7c54 <__subsf3+0x228>
800a7c24:	0ff00713          	li	a4,255
800a7c28:	e8e904e3          	beq	s2,a4,800a7ab0 <__subsf3+0x84>
800a7c2c:	01b00613          	li	a2,27
800a7c30:	00100713          	li	a4,1
800a7c34:	00d64e63          	blt	a2,a3,800a7c50 <__subsf3+0x224>
800a7c38:	02000613          	li	a2,32
800a7c3c:	00d7d733          	srl	a4,a5,a3
800a7c40:	40d606b3          	sub	a3,a2,a3
800a7c44:	00d796b3          	sll	a3,a5,a3
800a7c48:	00d036b3          	snez	a3,a3
800a7c4c:	00d76733          	or	a4,a4,a3
800a7c50:	40e507b3          	sub	a5,a0,a4
800a7c54:	00579713          	slli	a4,a5,0x5
800a7c58:	f60754e3          	bgez	a4,800a7bc0 <__subsf3+0x194>
800a7c5c:	040004b7          	lui	s1,0x4000
800a7c60:	fff48493          	addi	s1,s1,-1 # 3ffffff <__heap_size+0x3dfffff>
800a7c64:	0097f4b3          	and	s1,a5,s1
800a7c68:	1080006f          	j	800a7d70 <__subsf3+0x344>
800a7c6c:	0ff00713          	li	a4,255
800a7c70:	e4e900e3          	beq	s2,a4,800a7ab0 <__subsf3+0x84>
800a7c74:	04000737          	lui	a4,0x4000
800a7c78:	00e7e7b3          	or	a5,a5,a4
800a7c7c:	fb1ff06f          	j	800a7c2c <__subsf3+0x200>
800a7c80:	06068e63          	beqz	a3,800a7cfc <__subsf3+0x2d0>
800a7c84:	41260733          	sub	a4,a2,s2
800a7c88:	02091663          	bnez	s2,800a7cb4 <__subsf3+0x288>
800a7c8c:	1a050e63          	beqz	a0,800a7e48 <__subsf3+0x41c>
800a7c90:	fff70693          	addi	a3,a4,-1 # 3ffffff <__heap_size+0x3dfffff>
800a7c94:	00069863          	bnez	a3,800a7ca4 <__subsf3+0x278>
800a7c98:	40a787b3          	sub	a5,a5,a0
800a7c9c:	00058413          	mv	s0,a1
800a7ca0:	f7dff06f          	j	800a7c1c <__subsf3+0x1f0>
800a7ca4:	0ff00813          	li	a6,255
800a7ca8:	03071063          	bne	a4,a6,800a7cc8 <__subsf3+0x29c>
800a7cac:	0ff00913          	li	s2,255
800a7cb0:	19c0006f          	j	800a7e4c <__subsf3+0x420>
800a7cb4:	0ff00693          	li	a3,255
800a7cb8:	fed60ae3          	beq	a2,a3,800a7cac <__subsf3+0x280>
800a7cbc:	040006b7          	lui	a3,0x4000
800a7cc0:	00d56533          	or	a0,a0,a3
800a7cc4:	00070693          	mv	a3,a4
800a7cc8:	01b00813          	li	a6,27
800a7ccc:	00100713          	li	a4,1
800a7cd0:	00d84e63          	blt	a6,a3,800a7cec <__subsf3+0x2c0>
800a7cd4:	02000713          	li	a4,32
800a7cd8:	40d70733          	sub	a4,a4,a3
800a7cdc:	00e51733          	sll	a4,a0,a4
800a7ce0:	00d55833          	srl	a6,a0,a3
800a7ce4:	00e03733          	snez	a4,a4
800a7ce8:	00e86733          	or	a4,a6,a4
800a7cec:	40e787b3          	sub	a5,a5,a4
800a7cf0:	00060913          	mv	s2,a2
800a7cf4:	00058413          	mv	s0,a1
800a7cf8:	f5dff06f          	j	800a7c54 <__subsf3+0x228>
800a7cfc:	00190713          	addi	a4,s2,1
800a7d00:	0fe77713          	andi	a4,a4,254
800a7d04:	04071c63          	bnez	a4,800a7d5c <__subsf3+0x330>
800a7d08:	02091c63          	bnez	s2,800a7d40 <__subsf3+0x314>
800a7d0c:	00051863          	bnez	a0,800a7d1c <__subsf3+0x2f0>
800a7d10:	12079e63          	bnez	a5,800a7e4c <__subsf3+0x420>
800a7d14:	00000413          	li	s0,0
800a7d18:	0c00006f          	j	800a7dd8 <__subsf3+0x3ac>
800a7d1c:	d8078ae3          	beqz	a5,800a7ab0 <__subsf3+0x84>
800a7d20:	40f50733          	sub	a4,a0,a5
800a7d24:	00571693          	slli	a3,a4,0x5
800a7d28:	40a787b3          	sub	a5,a5,a0
800a7d2c:	1206c063          	bltz	a3,800a7e4c <__subsf3+0x420>
800a7d30:	00070793          	mv	a5,a4
800a7d34:	e80716e3          	bnez	a4,800a7bc0 <__subsf3+0x194>
800a7d38:	00000793          	li	a5,0
800a7d3c:	fd9ff06f          	j	800a7d14 <__subsf3+0x2e8>
800a7d40:	ea0510e3          	bnez	a0,800a7be0 <__subsf3+0x1b4>
800a7d44:	00058413          	mv	s0,a1
800a7d48:	de079ce3          	bnez	a5,800a7b40 <__subsf3+0x114>
800a7d4c:	00000413          	li	s0,0
800a7d50:	020007b7          	lui	a5,0x2000
800a7d54:	0ff00913          	li	s2,255
800a7d58:	0800006f          	j	800a7dd8 <__subsf3+0x3ac>
800a7d5c:	40f504b3          	sub	s1,a0,a5
800a7d60:	00549713          	slli	a4,s1,0x5
800a7d64:	04075463          	bgez	a4,800a7dac <__subsf3+0x380>
800a7d68:	40a784b3          	sub	s1,a5,a0
800a7d6c:	00058413          	mv	s0,a1
800a7d70:	00048513          	mv	a0,s1
800a7d74:	448000ef          	jal	800a81bc <__clzsi2>
800a7d78:	ffb50513          	addi	a0,a0,-5
800a7d7c:	00a494b3          	sll	s1,s1,a0
800a7d80:	03254e63          	blt	a0,s2,800a7dbc <__subsf3+0x390>
800a7d84:	41250533          	sub	a0,a0,s2
800a7d88:	00150513          	addi	a0,a0,1
800a7d8c:	02000713          	li	a4,32
800a7d90:	40a70733          	sub	a4,a4,a0
800a7d94:	00a4d7b3          	srl	a5,s1,a0
800a7d98:	00e494b3          	sll	s1,s1,a4
800a7d9c:	009034b3          	snez	s1,s1
800a7da0:	0097e7b3          	or	a5,a5,s1
800a7da4:	00000913          	li	s2,0
800a7da8:	e19ff06f          	j	800a7bc0 <__subsf3+0x194>
800a7dac:	fc0492e3          	bnez	s1,800a7d70 <__subsf3+0x344>
800a7db0:	00000793          	li	a5,0
800a7db4:	00000913          	li	s2,0
800a7db8:	f5dff06f          	j	800a7d14 <__subsf3+0x2e8>
800a7dbc:	fc0007b7          	lui	a5,0xfc000
800a7dc0:	fff78793          	addi	a5,a5,-1 # fbffffff <__stack_top+0x7b7fe7ff>
800a7dc4:	40a90933          	sub	s2,s2,a0
800a7dc8:	00f4f7b3          	and	a5,s1,a5
800a7dcc:	df5ff06f          	j	800a7bc0 <__subsf3+0x194>
800a7dd0:	0ff00913          	li	s2,255
800a7dd4:	00000793          	li	a5,0
800a7dd8:	00579713          	slli	a4,a5,0x5
800a7ddc:	00075e63          	bgez	a4,800a7df8 <__subsf3+0x3cc>
800a7de0:	00190913          	addi	s2,s2,1
800a7de4:	0ff00713          	li	a4,255
800a7de8:	06e90663          	beq	s2,a4,800a7e54 <__subsf3+0x428>
800a7dec:	fc000737          	lui	a4,0xfc000
800a7df0:	fff70713          	addi	a4,a4,-1 # fbffffff <__stack_top+0x7b7fe7ff>
800a7df4:	00e7f7b3          	and	a5,a5,a4
800a7df8:	0ff00713          	li	a4,255
800a7dfc:	0037d793          	srli	a5,a5,0x3
800a7e00:	00e91863          	bne	s2,a4,800a7e10 <__subsf3+0x3e4>
800a7e04:	00078663          	beqz	a5,800a7e10 <__subsf3+0x3e4>
800a7e08:	004007b7          	lui	a5,0x400
800a7e0c:	00000413          	li	s0,0
800a7e10:	00c12083          	lw	ra,12(sp)
800a7e14:	01791713          	slli	a4,s2,0x17
800a7e18:	01f41513          	slli	a0,s0,0x1f
800a7e1c:	7f8006b7          	lui	a3,0x7f800
800a7e20:	00812403          	lw	s0,8(sp)
800a7e24:	00979793          	slli	a5,a5,0x9
800a7e28:	00d77733          	and	a4,a4,a3
800a7e2c:	0097d793          	srli	a5,a5,0x9
800a7e30:	00f767b3          	or	a5,a4,a5
800a7e34:	00412483          	lw	s1,4(sp)
800a7e38:	00012903          	lw	s2,0(sp)
800a7e3c:	00a7e533          	or	a0,a5,a0
800a7e40:	01010113          	addi	sp,sp,16
800a7e44:	00008067          	ret
800a7e48:	00070913          	mv	s2,a4
800a7e4c:	00058413          	mv	s0,a1
800a7e50:	d71ff06f          	j	800a7bc0 <__subsf3+0x194>
800a7e54:	00000793          	li	a5,0
800a7e58:	fa1ff06f          	j	800a7df8 <__subsf3+0x3cc>

800a7e5c <__fixunssfsi>:
800a7e5c:	008005b7          	lui	a1,0x800
800a7e60:	01755793          	srli	a5,a0,0x17
800a7e64:	fff58693          	addi	a3,a1,-1 # 7fffff <__heap_size+0x5fffff>
800a7e68:	0ff7f793          	zext.b	a5,a5
800a7e6c:	07e00613          	li	a2,126
800a7e70:	00a6f6b3          	and	a3,a3,a0
800a7e74:	01f55713          	srli	a4,a0,0x1f
800a7e78:	04f65263          	bge	a2,a5,800a7ebc <__fixunssfsi+0x60>
800a7e7c:	00174613          	xori	a2,a4,1
800a7e80:	09e60613          	addi	a2,a2,158
800a7e84:	fff70513          	addi	a0,a4,-1
800a7e88:	02c7dc63          	bge	a5,a2,800a7ec0 <__fixunssfsi+0x64>
800a7e8c:	00000513          	li	a0,0
800a7e90:	02071863          	bnez	a4,800a7ec0 <__fixunssfsi+0x64>
800a7e94:	09500713          	li	a4,149
800a7e98:	00b6e533          	or	a0,a3,a1
800a7e9c:	00f75863          	bge	a4,a5,800a7eac <__fixunssfsi+0x50>
800a7ea0:	f6a78793          	addi	a5,a5,-150 # 3fff6a <__heap_size+0x1fff6a>
800a7ea4:	00f51533          	sll	a0,a0,a5
800a7ea8:	00008067          	ret
800a7eac:	09600713          	li	a4,150
800a7eb0:	40f707b3          	sub	a5,a4,a5
800a7eb4:	00f55533          	srl	a0,a0,a5
800a7eb8:	00008067          	ret
800a7ebc:	00000513          	li	a0,0
800a7ec0:	00008067          	ret

800a7ec4 <__floatsisf>:
800a7ec4:	ff010113          	addi	sp,sp,-16
800a7ec8:	00112623          	sw	ra,12(sp)
800a7ecc:	00812423          	sw	s0,8(sp)
800a7ed0:	00912223          	sw	s1,4(sp)
800a7ed4:	00050793          	mv	a5,a0
800a7ed8:	0e050063          	beqz	a0,800a7fb8 <__floatsisf+0xf4>
800a7edc:	41f55713          	srai	a4,a0,0x1f
800a7ee0:	00a74433          	xor	s0,a4,a0
800a7ee4:	40e40433          	sub	s0,s0,a4
800a7ee8:	01f55493          	srli	s1,a0,0x1f
800a7eec:	00040513          	mv	a0,s0
800a7ef0:	2cc000ef          	jal	800a81bc <__clzsi2>
800a7ef4:	09e00793          	li	a5,158
800a7ef8:	40a787b3          	sub	a5,a5,a0
800a7efc:	09600713          	li	a4,150
800a7f00:	04f74063          	blt	a4,a5,800a7f40 <__floatsisf+0x7c>
800a7f04:	00800713          	li	a4,8
800a7f08:	0ae50e63          	beq	a0,a4,800a7fc4 <__floatsisf+0x100>
800a7f0c:	ff850513          	addi	a0,a0,-8
800a7f10:	00a41433          	sll	s0,s0,a0
800a7f14:	00941413          	slli	s0,s0,0x9
800a7f18:	00945413          	srli	s0,s0,0x9
800a7f1c:	01779793          	slli	a5,a5,0x17
800a7f20:	00c12083          	lw	ra,12(sp)
800a7f24:	0087e7b3          	or	a5,a5,s0
800a7f28:	00812403          	lw	s0,8(sp)
800a7f2c:	01f49513          	slli	a0,s1,0x1f
800a7f30:	00a7e533          	or	a0,a5,a0
800a7f34:	00412483          	lw	s1,4(sp)
800a7f38:	01010113          	addi	sp,sp,16
800a7f3c:	00008067          	ret
800a7f40:	09900713          	li	a4,153
800a7f44:	06f75463          	bge	a4,a5,800a7fac <__floatsisf+0xe8>
800a7f48:	00500713          	li	a4,5
800a7f4c:	40a70733          	sub	a4,a4,a0
800a7f50:	01b50693          	addi	a3,a0,27
800a7f54:	00e45733          	srl	a4,s0,a4
800a7f58:	00d41433          	sll	s0,s0,a3
800a7f5c:	00803433          	snez	s0,s0
800a7f60:	00876733          	or	a4,a4,s0
800a7f64:	fc000437          	lui	s0,0xfc000
800a7f68:	fff40413          	addi	s0,s0,-1 # fbffffff <__stack_top+0x7b7fe7ff>
800a7f6c:	00777693          	andi	a3,a4,7
800a7f70:	00877433          	and	s0,a4,s0
800a7f74:	00068a63          	beqz	a3,800a7f88 <__floatsisf+0xc4>
800a7f78:	00f77713          	andi	a4,a4,15
800a7f7c:	00400693          	li	a3,4
800a7f80:	00d70463          	beq	a4,a3,800a7f88 <__floatsisf+0xc4>
800a7f84:	00440413          	addi	s0,s0,4
800a7f88:	00541713          	slli	a4,s0,0x5
800a7f8c:	00075c63          	bgez	a4,800a7fa4 <__floatsisf+0xe0>
800a7f90:	fc0007b7          	lui	a5,0xfc000
800a7f94:	fff78793          	addi	a5,a5,-1 # fbffffff <__stack_top+0x7b7fe7ff>
800a7f98:	00f47433          	and	s0,s0,a5
800a7f9c:	09f00793          	li	a5,159
800a7fa0:	40a787b3          	sub	a5,a5,a0
800a7fa4:	00345413          	srli	s0,s0,0x3
800a7fa8:	f6dff06f          	j	800a7f14 <__floatsisf+0x50>
800a7fac:	ffb50713          	addi	a4,a0,-5
800a7fb0:	00e41733          	sll	a4,s0,a4
800a7fb4:	fb1ff06f          	j	800a7f64 <__floatsisf+0xa0>
800a7fb8:	00000493          	li	s1,0
800a7fbc:	00000413          	li	s0,0
800a7fc0:	f55ff06f          	j	800a7f14 <__floatsisf+0x50>
800a7fc4:	09600793          	li	a5,150
800a7fc8:	f4dff06f          	j	800a7f14 <__floatsisf+0x50>

800a7fcc <__floatunsisf>:
800a7fcc:	ff010113          	addi	sp,sp,-16
800a7fd0:	00812423          	sw	s0,8(sp)
800a7fd4:	00112623          	sw	ra,12(sp)
800a7fd8:	00050413          	mv	s0,a0
800a7fdc:	00000713          	li	a4,0
800a7fe0:	02050463          	beqz	a0,800a8008 <__floatunsisf+0x3c>
800a7fe4:	1d8000ef          	jal	800a81bc <__clzsi2>
800a7fe8:	09e00713          	li	a4,158
800a7fec:	40a70733          	sub	a4,a4,a0
800a7ff0:	09600793          	li	a5,150
800a7ff4:	02e7ca63          	blt	a5,a4,800a8028 <__floatunsisf+0x5c>
800a7ff8:	00800793          	li	a5,8
800a7ffc:	0af50263          	beq	a0,a5,800a80a0 <__floatunsisf+0xd4>
800a8000:	ff850513          	addi	a0,a0,-8
800a8004:	00a41433          	sll	s0,s0,a0
800a8008:	00941413          	slli	s0,s0,0x9
800a800c:	00945413          	srli	s0,s0,0x9
800a8010:	01771513          	slli	a0,a4,0x17
800a8014:	00c12083          	lw	ra,12(sp)
800a8018:	00856533          	or	a0,a0,s0
800a801c:	00812403          	lw	s0,8(sp)
800a8020:	01010113          	addi	sp,sp,16
800a8024:	00008067          	ret
800a8028:	09900793          	li	a5,153
800a802c:	06e7d463          	bge	a5,a4,800a8094 <__floatunsisf+0xc8>
800a8030:	01b50793          	addi	a5,a0,27
800a8034:	00500693          	li	a3,5
800a8038:	00f417b3          	sll	a5,s0,a5
800a803c:	40a686b3          	sub	a3,a3,a0
800a8040:	00f037b3          	snez	a5,a5
800a8044:	00d45433          	srl	s0,s0,a3
800a8048:	0087e7b3          	or	a5,a5,s0
800a804c:	fc000437          	lui	s0,0xfc000
800a8050:	fff40413          	addi	s0,s0,-1 # fbffffff <__stack_top+0x7b7fe7ff>
800a8054:	0077f693          	andi	a3,a5,7
800a8058:	0087f433          	and	s0,a5,s0
800a805c:	00068a63          	beqz	a3,800a8070 <__floatunsisf+0xa4>
800a8060:	00f7f793          	andi	a5,a5,15
800a8064:	00400693          	li	a3,4
800a8068:	00d78463          	beq	a5,a3,800a8070 <__floatunsisf+0xa4>
800a806c:	00440413          	addi	s0,s0,4
800a8070:	00541793          	slli	a5,s0,0x5
800a8074:	0007dc63          	bgez	a5,800a808c <__floatunsisf+0xc0>
800a8078:	fc0007b7          	lui	a5,0xfc000
800a807c:	fff78793          	addi	a5,a5,-1 # fbffffff <__stack_top+0x7b7fe7ff>
800a8080:	09f00713          	li	a4,159
800a8084:	00f47433          	and	s0,s0,a5
800a8088:	40a70733          	sub	a4,a4,a0
800a808c:	00345413          	srli	s0,s0,0x3
800a8090:	f79ff06f          	j	800a8008 <__floatunsisf+0x3c>
800a8094:	ffb50793          	addi	a5,a0,-5
800a8098:	00f417b3          	sll	a5,s0,a5
800a809c:	fb1ff06f          	j	800a804c <__floatunsisf+0x80>
800a80a0:	09600713          	li	a4,150
800a80a4:	f65ff06f          	j	800a8008 <__floatunsisf+0x3c>

800a80a8 <__extendsfdf2>:
800a80a8:	01755713          	srli	a4,a0,0x17
800a80ac:	0ff77713          	zext.b	a4,a4
800a80b0:	ff010113          	addi	sp,sp,-16
800a80b4:	00170793          	addi	a5,a4,1
800a80b8:	00812423          	sw	s0,8(sp)
800a80bc:	00912223          	sw	s1,4(sp)
800a80c0:	00951413          	slli	s0,a0,0x9
800a80c4:	00112623          	sw	ra,12(sp)
800a80c8:	0fe7f793          	andi	a5,a5,254
800a80cc:	00945413          	srli	s0,s0,0x9
800a80d0:	01f55493          	srli	s1,a0,0x1f
800a80d4:	04078263          	beqz	a5,800a8118 <__extendsfdf2+0x70>
800a80d8:	00345793          	srli	a5,s0,0x3
800a80dc:	38070713          	addi	a4,a4,896
800a80e0:	01d41413          	slli	s0,s0,0x1d
800a80e4:	00c79793          	slli	a5,a5,0xc
800a80e8:	00c7d793          	srli	a5,a5,0xc
800a80ec:	01471713          	slli	a4,a4,0x14
800a80f0:	01f49513          	slli	a0,s1,0x1f
800a80f4:	00f76733          	or	a4,a4,a5
800a80f8:	00c12083          	lw	ra,12(sp)
800a80fc:	00a767b3          	or	a5,a4,a0
800a8100:	00040513          	mv	a0,s0
800a8104:	00812403          	lw	s0,8(sp)
800a8108:	00412483          	lw	s1,4(sp)
800a810c:	00078593          	mv	a1,a5
800a8110:	01010113          	addi	sp,sp,16
800a8114:	00008067          	ret
800a8118:	04071663          	bnez	a4,800a8164 <__extendsfdf2+0xbc>
800a811c:	00000793          	li	a5,0
800a8120:	fc0402e3          	beqz	s0,800a80e4 <__extendsfdf2+0x3c>
800a8124:	00040513          	mv	a0,s0
800a8128:	094000ef          	jal	800a81bc <__clzsi2>
800a812c:	00a00793          	li	a5,10
800a8130:	02a7c263          	blt	a5,a0,800a8154 <__extendsfdf2+0xac>
800a8134:	00b00793          	li	a5,11
800a8138:	40a787b3          	sub	a5,a5,a0
800a813c:	01550713          	addi	a4,a0,21
800a8140:	00f457b3          	srl	a5,s0,a5
800a8144:	00e41433          	sll	s0,s0,a4
800a8148:	38900713          	li	a4,905
800a814c:	40a70733          	sub	a4,a4,a0
800a8150:	f95ff06f          	j	800a80e4 <__extendsfdf2+0x3c>
800a8154:	ff550793          	addi	a5,a0,-11
800a8158:	00f417b3          	sll	a5,s0,a5
800a815c:	00000413          	li	s0,0
800a8160:	fe9ff06f          	j	800a8148 <__extendsfdf2+0xa0>
800a8164:	00000793          	li	a5,0
800a8168:	00040a63          	beqz	s0,800a817c <__extendsfdf2+0xd4>
800a816c:	00345793          	srli	a5,s0,0x3
800a8170:	00080737          	lui	a4,0x80
800a8174:	01d41413          	slli	s0,s0,0x1d
800a8178:	00e7e7b3          	or	a5,a5,a4
800a817c:	7ff00713          	li	a4,2047
800a8180:	f65ff06f          	j	800a80e4 <__extendsfdf2+0x3c>

800a8184 <__ashldi3>:
800a8184:	02060063          	beqz	a2,800a81a4 <__ashldi3+0x20>
800a8188:	02000793          	li	a5,32
800a818c:	40c787b3          	sub	a5,a5,a2
800a8190:	00f04c63          	bgtz	a5,800a81a8 <__ashldi3+0x24>
800a8194:	fe060613          	addi	a2,a2,-32
800a8198:	00c515b3          	sll	a1,a0,a2
800a819c:	00000713          	li	a4,0
800a81a0:	00070513          	mv	a0,a4
800a81a4:	00008067          	ret
800a81a8:	00c51733          	sll	a4,a0,a2
800a81ac:	00c595b3          	sll	a1,a1,a2
800a81b0:	00f55533          	srl	a0,a0,a5
800a81b4:	00a5e5b3          	or	a1,a1,a0
800a81b8:	fe9ff06f          	j	800a81a0 <__ashldi3+0x1c>

800a81bc <__clzsi2>:
800a81bc:	000107b7          	lui	a5,0x10
800a81c0:	02f57a63          	bgeu	a0,a5,800a81f4 <__clzsi2+0x38>
800a81c4:	10053793          	sltiu	a5,a0,256
800a81c8:	0017b793          	seqz	a5,a5
800a81cc:	00379793          	slli	a5,a5,0x3
800a81d0:	800f1737          	lui	a4,0x800f1
800a81d4:	02000693          	li	a3,32
800a81d8:	40f686b3          	sub	a3,a3,a5
800a81dc:	00f55533          	srl	a0,a0,a5
800a81e0:	59870793          	addi	a5,a4,1432 # 800f1598 <__clz_tab>
800a81e4:	00a787b3          	add	a5,a5,a0
800a81e8:	0007c503          	lbu	a0,0(a5) # 10000 <__stack_size+0xf800>
800a81ec:	40a68533          	sub	a0,a3,a0
800a81f0:	00008067          	ret
800a81f4:	01000737          	lui	a4,0x1000
800a81f8:	01800793          	li	a5,24
800a81fc:	fce57ae3          	bgeu	a0,a4,800a81d0 <__clzsi2+0x14>
800a8200:	01000793          	li	a5,16
800a8204:	fcdff06f          	j	800a81d0 <__clzsi2+0x14>
